
obj/kern/kernel:     file format elf64-x86-64


Disassembly of section .bootstrap:

0000000000100000 <_head64>:
.text
.globl _head64
_head64:

# Save multiboot_info addr passed by bootloader
    movl $multiboot_info, %eax
  100000:	b8 00 70 10 00       	mov    $0x107000,%eax
    movl %ebx, (%eax)
  100005:	89 18                	mov    %ebx,(%rax)

	movw $0x1234,0x472			# warm boot
  100007:	66 c7 05 72 04 00 00 	movw   $0x1234,0x472(%rip)        # 100482 <verify_cpu_no_longmode+0x36f>
  10000e:	34 12 
# Reset the stack pointer in case we didn't come from the loader
    movl $0x7c00,%esp
  100010:	bc 00 7c 00 00       	mov    $0x7c00,%esp

    call verify_cpu   #check if CPU supports long mode
  100015:	e8 cc 00 00 00       	callq  1000e6 <verify_cpu>
    movl $CR4_PAE,%eax
  10001a:	b8 20 00 00 00       	mov    $0x20,%eax
    movl %eax,%cr4
  10001f:	0f 22 e0             	mov    %rax,%cr4

# build an early boot pml4 at physical address pml4phys 

    #initializing the page tables
    movl $pml4,%edi
  100022:	bf 00 20 10 00       	mov    $0x102000,%edi
    xorl %eax,%eax
  100027:	31 c0                	xor    %eax,%eax
    movl $((4096/4)*5),%ecx  # moving these many words to the 6 pages with 4 second level pages + 1 3rd level + 1 4th level pages 
  100029:	b9 00 14 00 00       	mov    $0x1400,%ecx
    rep stosl
  10002e:	f3 ab                	rep stos %eax,%es:(%rdi)
    # creating a 4G boot page table
    # setting the 4th level page table only the second entry needed (PML4)
    movl $pml4,%eax
  100030:	b8 00 20 10 00       	mov    $0x102000,%eax
    movl $pdpt1, %ebx
  100035:	bb 00 30 10 00       	mov    $0x103000,%ebx
    orl $PTE_P,%ebx
  10003a:	83 cb 01             	or     $0x1,%ebx
    orl $PTE_W,%ebx
  10003d:	83 cb 02             	or     $0x2,%ebx
    movl %ebx,(%eax)
  100040:	89 18                	mov    %ebx,(%rax)

    movl $pdpt2, %ebx
  100042:	bb 00 40 10 00       	mov    $0x104000,%ebx
    orl $PTE_P,%ebx
  100047:	83 cb 01             	or     $0x1,%ebx
    orl $PTE_W,%ebx
  10004a:	83 cb 02             	or     $0x2,%ebx
    movl %ebx,0x8(%eax)
  10004d:	89 58 08             	mov    %ebx,0x8(%rax)

    # setting the 3rd level page table (PDPE)
    # 4 entries (counter in ecx), point to the next four physical pages (pgdirs)
    # pgdirs in 0xa0000--0xd000
    movl $pdpt1,%edi
  100050:	bf 00 30 10 00       	mov    $0x103000,%edi
    movl $pde1,%ebx
  100055:	bb 00 50 10 00       	mov    $0x105000,%ebx
    orl $PTE_P,%ebx
  10005a:	83 cb 01             	or     $0x1,%ebx
    orl $PTE_W,%ebx
  10005d:	83 cb 02             	or     $0x2,%ebx
    movl %ebx,(%edi)
  100060:	89 1f                	mov    %ebx,(%rdi)

    movl $pdpt2,%edi
  100062:	bf 00 40 10 00       	mov    $0x104000,%edi
    movl $pde2,%ebx
  100067:	bb 00 60 10 00       	mov    $0x106000,%ebx
    orl $PTE_P,%ebx
  10006c:	83 cb 01             	or     $0x1,%ebx
    orl $PTE_W,%ebx
  10006f:	83 cb 02             	or     $0x2,%ebx
    movl %ebx,(%edi)
  100072:	89 1f                	mov    %ebx,(%rdi)
    
    # setting the pgdir so that the LA=PA
    # mapping first 1G of mem at KERNBASE
    movl $128,%ecx
  100074:	b9 80 00 00 00       	mov    $0x80,%ecx
    # Start at the end and work backwards
    #leal (pml4 + 5*0x1000 - 0x8),%edi
    movl $pde1,%edi
  100079:	bf 00 50 10 00       	mov    $0x105000,%edi
    movl $pde2,%ebx
  10007e:	bb 00 60 10 00       	mov    $0x106000,%ebx
    #64th entry - 0x8004000000
    addl $256,%ebx 
  100083:	81 c3 00 01 00 00    	add    $0x100,%ebx
    # PTE_P|PTE_W|PTE_MBZ
    movl $0x00000183,%eax
  100089:	b8 83 01 00 00       	mov    $0x183,%eax
  1:
     movl %eax,(%edi)
  10008e:	89 07                	mov    %eax,(%rdi)
     movl %eax,(%ebx)
  100090:	89 03                	mov    %eax,(%rbx)
     addl $0x8,%edi
  100092:	83 c7 08             	add    $0x8,%edi
     addl $0x8,%ebx
  100095:	83 c3 08             	add    $0x8,%ebx
     addl $0x00200000,%eax
  100098:	05 00 00 20 00       	add    $0x200000,%eax
     subl $1,%ecx
  10009d:	83 e9 01             	sub    $0x1,%ecx
     cmp $0x0,%ecx
  1000a0:	83 f9 00             	cmp    $0x0,%ecx
     jne 1b
  1000a3:	75 e9                	jne    10008e <_head64+0x8e>
 /*    subl $1,%ecx */
 /*    cmp $0x0,%ecx */
 /*    jne 1b */

    # set the cr3 register
    movl $pml4,%eax
  1000a5:	b8 00 20 10 00       	mov    $0x102000,%eax
    movl %eax, %cr3
  1000aa:	0f 22 d8             	mov    %rax,%cr3

	
    # enable the long mode in MSR
    movl $EFER_MSR,%ecx
  1000ad:	b9 80 00 00 c0       	mov    $0xc0000080,%ecx
    rdmsr
  1000b2:	0f 32                	rdmsr  
    btsl $EFER_LME,%eax
  1000b4:	0f ba e8 08          	bts    $0x8,%eax
    wrmsr
  1000b8:	0f 30                	wrmsr  
    
    # enable paging 
    movl %cr0,%eax
  1000ba:	0f 20 c0             	mov    %cr0,%rax
    orl $CR0_PE,%eax
  1000bd:	83 c8 01             	or     $0x1,%eax
    orl $CR0_PG,%eax
  1000c0:	0d 00 00 00 80       	or     $0x80000000,%eax
    orl $CR0_AM,%eax
  1000c5:	0d 00 00 04 00       	or     $0x40000,%eax
    orl $CR0_WP,%eax
  1000ca:	0d 00 00 01 00       	or     $0x10000,%eax
    orl $CR0_MP,%eax
  1000cf:	83 c8 02             	or     $0x2,%eax
    movl %eax,%cr0
  1000d2:	0f 22 c0             	mov    %rax,%cr0
    #jump to long mode with CS=0 and

    movl $gdtdesc_64,%eax
  1000d5:	b8 18 10 10 00       	mov    $0x101018,%eax
    lgdt (%eax)
  1000da:	0f 01 10             	lgdt   (%rax)
    pushl $0x8
  1000dd:	6a 08                	pushq  $0x8
    movl $_start,%eax
  1000df:	b8 0c 00 20 00       	mov    $0x20000c,%eax
    pushl %eax
  1000e4:	50                   	push   %rax

00000000001000e5 <jumpto_longmode>:
    
    .globl jumpto_longmode
    .type jumpto_longmode,@function
jumpto_longmode:
    lret
  1000e5:	cb                   	lret   

00000000001000e6 <verify_cpu>:
/*     movabs $_back_from_head64, %rax */
/*     pushq %rax */
/*     lretq */

verify_cpu:
    pushfl                   # get eflags in eax -- standardard way to check for cpuid
  1000e6:	9c                   	pushfq 
    popl %eax
  1000e7:	58                   	pop    %rax
    movl %eax,%ecx
  1000e8:	89 c1                	mov    %eax,%ecx
    xorl $0x200000, %eax
  1000ea:	35 00 00 20 00       	xor    $0x200000,%eax
    pushl %eax
  1000ef:	50                   	push   %rax
    popfl
  1000f0:	9d                   	popfq  
    pushfl
  1000f1:	9c                   	pushfq 
    popl %eax
  1000f2:	58                   	pop    %rax
    cmpl %eax,%ebx
  1000f3:	39 c3                	cmp    %eax,%ebx
    jz verify_cpu_no_longmode   # no cpuid -- no long mode
  1000f5:	74 1c                	je     100113 <verify_cpu_no_longmode>

    movl $0x0,%eax              # see if cpuid 1 is implemented
  1000f7:	b8 00 00 00 00       	mov    $0x0,%eax
    cpuid
  1000fc:	0f a2                	cpuid  
    cmpl $0x1,%eax
  1000fe:	83 f8 01             	cmp    $0x1,%eax
    jb verify_cpu_no_longmode    # cpuid 1 is not implemented
  100101:	72 10                	jb     100113 <verify_cpu_no_longmode>


    mov $0x80000001, %eax
  100103:	b8 01 00 00 80       	mov    $0x80000001,%eax
    cpuid                 
  100108:	0f a2                	cpuid  
    test $(1 << 29),%edx                 #Test if the LM-bit, is set or not.
  10010a:	f7 c2 00 00 00 20    	test   $0x20000000,%edx
    jz verify_cpu_no_longmode
  100110:	74 01                	je     100113 <verify_cpu_no_longmode>

    ret
  100112:	c3                   	retq   

0000000000100113 <verify_cpu_no_longmode>:

verify_cpu_no_longmode:
    jmp verify_cpu_no_longmode
  100113:	eb fe                	jmp    100113 <verify_cpu_no_longmode>
	...

0000000000101000 <gdt_64>:
	...
  101008:	ff                   	(bad)  
  101009:	ff 00                	incl   (%rax)
  10100b:	00 00                	add    %al,(%rax)
  10100d:	9a                   	(bad)  
  10100e:	af                   	scas   %es:(%rdi),%eax
  10100f:	00 ff                	add    %bh,%bh
  101011:	ff 00                	incl   (%rax)
  101013:	00 00                	add    %al,(%rax)
  101015:	92                   	xchg   %eax,%edx
  101016:	cf                   	iret   
	...

0000000000101018 <gdtdesc_64>:
  101018:	17                   	(bad)  
  101019:	00 00                	add    %al,(%rax)
  10101b:	10 10                	adc    %dl,(%rax)
	...

0000000000102000 <pml4phys>:
	...

0000000000103000 <pdpt1>:
	...

0000000000104000 <pdpt2>:
	...

0000000000105000 <pde1>:
	...

0000000000106000 <pde2>:
	...

0000000000107000 <multiboot_info>:
  107000:	00 00                	add    %al,(%rax)
	...

Disassembly of section .text:

0000008004200000 <_start+0x8003fffff4>:
  8004200000:	02 b0 ad 1b 00 00    	add    0x1bad(%rax),%dh
  8004200006:	00 00                	add    %al,(%rax)
  8004200008:	fe 4f 52             	decb   0x52(%rdi)
  800420000b:	e4 48                	in     $0x48,%al

000000800420000c <entry>:
entry:

/* .globl _back_from_head64 */
/* _back_from_head64: */

    movabs   $gdtdesc_64,%rax
  800420000c:	48 b8 38 a0 22 04 80 	movabs $0x800422a038,%rax
  8004200013:	00 00 00 
    lgdt     (%rax)
  8004200016:	0f 01 10             	lgdt   (%rax)
    movw    $DATA_SEL,%ax
  8004200019:	66 b8 10 00          	mov    $0x10,%ax
    movw    %ax,%ds
  800420001d:	8e d8                	mov    %eax,%ds
    movw    %ax,%ss
  800420001f:	8e d0                	mov    %eax,%ss
    movw    %ax,%fs
  8004200021:	8e e0                	mov    %eax,%fs
    movw    %ax,%gs
  8004200023:	8e e8                	mov    %eax,%gs
    movw    %ax,%es
  8004200025:	8e c0                	mov    %eax,%es
    pushq   $CODE_SEL
  8004200027:	6a 08                	pushq  $0x8
    movabs  $relocated,%rax
  8004200029:	48 b8 36 00 20 04 80 	movabs $0x8004200036,%rax
  8004200030:	00 00 00 
    pushq   %rax
  8004200033:	50                   	push   %rax
    lretq
  8004200034:	48 cb                	lretq  

0000008004200036 <relocated>:
relocated:

	# Clear the frame pointer register (RBP)
	# so that once we get into debugging C code,
	# stack backtraces will be terminated properly.
	movq	$0x0,%rbp			# nuke frame pointer
  8004200036:	48 c7 c5 00 00 00 00 	mov    $0x0,%rbp

	# Set the stack pointer
	movabs	$(bootstacktop),%rax
  800420003d:	48 b8 00 a0 22 04 80 	movabs $0x800422a000,%rax
  8004200044:	00 00 00 
	movq  %rax,%rsp
  8004200047:	48 89 c4             	mov    %rax,%rsp

	# now to C code
    movabs $i386_init, %rax
  800420004a:	48 b8 a5 00 20 04 80 	movabs $0x80042000a5,%rax
  8004200051:	00 00 00 
	call *%rax
  8004200054:	ff d0                	callq  *%rax

0000008004200056 <spin>:

	# Should never get here, but in case we do, just spin.
spin:	jmp	spin
  8004200056:	eb fe                	jmp    8004200056 <spin>

0000008004200058 <xchg>:
	if (edxp)
		*edxp = edx;
}

static inline uint32_t
xchg(volatile uint32_t *addr,uint32_t newval){
  8004200058:	55                   	push   %rbp
  8004200059:	48 89 e5             	mov    %rsp,%rbp
  800420005c:	53                   	push   %rbx
  800420005d:	48 83 ec 20          	sub    $0x20,%rsp
  8004200061:	48 89 7d e0          	mov    %rdi,-0x20(%rbp)
  8004200065:	89 75 dc             	mov    %esi,-0x24(%rbp)
	uint32_t result;
	__asm __volatile("lock; xchgl %0, %1":
	"+m" (*addr), "=a" (result):
  8004200068:	48 8b 55 e0          	mov    -0x20(%rbp),%rdx
}

static inline uint32_t
xchg(volatile uint32_t *addr,uint32_t newval){
	uint32_t result;
	__asm __volatile("lock; xchgl %0, %1":
  800420006c:	8b 45 dc             	mov    -0x24(%rbp),%eax
	"+m" (*addr), "=a" (result):
  800420006f:	48 8b 4d e0          	mov    -0x20(%rbp),%rcx
}

static inline uint32_t
xchg(volatile uint32_t *addr,uint32_t newval){
	uint32_t result;
	__asm __volatile("lock; xchgl %0, %1":
  8004200073:	89 c3                	mov    %eax,%ebx
  8004200075:	89 d8                	mov    %ebx,%eax
  8004200077:	f0 87 02             	lock xchg %eax,(%rdx)
  800420007a:	89 c3                	mov    %eax,%ebx
  800420007c:	89 5d f4             	mov    %ebx,-0xc(%rbp)
	"+m" (*addr), "=a" (result):
	"1"(newval):
	"cc");
	return result;
  800420007f:	8b 45 f4             	mov    -0xc(%rbp),%eax
}
  8004200082:	48 83 c4 20          	add    $0x20,%rsp
  8004200086:	5b                   	pop    %rbx
  8004200087:	5d                   	pop    %rbp
  8004200088:	c3                   	retq   

0000008004200089 <lock_kernel>:

extern struct spinlock kernel_lock;

static inline void
lock_kernel(void)
{
  8004200089:	55                   	push   %rbp
  800420008a:	48 89 e5             	mov    %rsp,%rbp
	spin_lock(&kernel_lock);
  800420008d:	48 bf 80 a7 22 04 80 	movabs $0x800422a780,%rdi
  8004200094:	00 00 00 
  8004200097:	48 b8 61 59 21 04 80 	movabs $0x8004215961,%rax
  800420009e:	00 00 00 
  80042000a1:	ff d0                	callq  *%rax
}
  80042000a3:	5d                   	pop    %rbp
  80042000a4:	c3                   	retq   

00000080042000a5 <i386_init>:
static void boot_aps(void);


void
i386_init(void)
{
  80042000a5:	55                   	push   %rbp
  80042000a6:	48 89 e5             	mov    %rsp,%rbp
	extern char edata[], end[];

	// Before doing anything else, complete the ELF loading process.
	// Clear the uninitialized global data (BSS) section of our program.
	// This ensures that all static/global variables start out zero.
	memset(edata, 0, end - edata);
  80042000a9:	48 ba 18 f0 6f 04 80 	movabs $0x80046ff018,%rdx
  80042000b0:	00 00 00 
  80042000b3:	48 b8 07 a6 63 04 80 	movabs $0x800463a607,%rax
  80042000ba:	00 00 00 
  80042000bd:	48 89 d1             	mov    %rdx,%rcx
  80042000c0:	48 29 c1             	sub    %rax,%rcx
  80042000c3:	48 89 c8             	mov    %rcx,%rax
  80042000c6:	48 89 c2             	mov    %rax,%rdx
  80042000c9:	be 00 00 00 00       	mov    $0x0,%esi
  80042000ce:	48 bf 07 a6 63 04 80 	movabs $0x800463a607,%rdi
  80042000d5:	00 00 00 
  80042000d8:	48 b8 53 e6 20 04 80 	movabs $0x800420e653,%rax
  80042000df:	00 00 00 
  80042000e2:	ff d0                	callq  *%rax

	// Initialize the console.
	// Can't call cprintf until after we do this!
	cons_init();
  80042000e4:	48 b8 51 12 20 04 80 	movabs $0x8004201251,%rax
  80042000eb:	00 00 00 
  80042000ee:	ff d0                	callq  *%rax

	cprintf("6828 decimal is %o octal!\n", 6828);
  80042000f0:	be ac 1a 00 00       	mov    $0x1aac,%esi
  80042000f5:	48 bf a0 6f 21 04 80 	movabs $0x8004216fa0,%rdi
  80042000fc:	00 00 00 
  80042000ff:	b8 00 00 00 00       	mov    $0x0,%eax
  8004200104:	48 ba f2 89 20 04 80 	movabs $0x80042089f2,%rdx
  800420010b:	00 00 00 
  800420010e:	ff d2                	callq  *%rdx

    extern char end[];
    end_debug = read_section_headers((0x10000+KERNBASE), (uintptr_t)end); 
  8004200110:	48 b8 18 f0 6f 04 80 	movabs $0x80046ff018,%rax
  8004200117:	00 00 00 
  800420011a:	48 89 c6             	mov    %rax,%rsi
  800420011d:	48 bf 00 00 01 04 80 	movabs $0x8004010000,%rdi
  8004200124:	00 00 00 
  8004200127:	48 b8 17 41 21 04 80 	movabs $0x8004214117,%rax
  800420012e:	00 00 00 
  8004200131:	ff d0                	callq  *%rax
  8004200133:	48 ba b8 c7 63 04 80 	movabs $0x800463c7b8,%rdx
  800420013a:	00 00 00 
  800420013d:	48 89 02             	mov    %rax,(%rdx)

	// Lab 2 memory management initialization functions
	x64_vm_init();
  8004200140:	b8 00 00 00 00       	mov    $0x0,%eax
  8004200145:	48 ba 86 24 20 04 80 	movabs $0x8004202486,%rdx
  800420014c:	00 00 00 
  800420014f:	ff d2                	callq  *%rdx

	// Lab 3 user environment initialization functions
	env_init();
  8004200151:	48 b8 3f 77 20 04 80 	movabs $0x800420773f,%rax
  8004200158:	00 00 00 
  800420015b:	ff d0                	callq  *%rax
	trap_init();
  800420015d:	48 b8 78 8b 20 04 80 	movabs $0x8004208b78,%rax
  8004200164:	00 00 00 
  8004200167:	ff d0                	callq  *%rax

	// Lab 4 multiprocessor initialization functions
	mp_init();
  8004200169:	48 b8 8f 50 21 04 80 	movabs $0x800421508f,%rax
  8004200170:	00 00 00 
  8004200173:	ff d0                	callq  *%rax
	lapic_init();
  8004200175:	48 b8 da 53 21 04 80 	movabs $0x80042153da,%rax
  800420017c:	00 00 00 
  800420017f:	ff d0                	callq  *%rax

	// Lab 4 multitasking initialization functions
	pic_init();
  8004200181:	48 b8 ec 86 20 04 80 	movabs $0x80042086ec,%rax
  8004200188:	00 00 00 
  800420018b:	ff d0                	callq  *%rax

	// Lab 6 hardware initialization functions
	time_init();
  800420018d:	48 b8 f8 6e 21 04 80 	movabs $0x8004216ef8,%rax
  8004200194:	00 00 00 
  8004200197:	ff d0                	callq  *%rax
	pci_init();
  8004200199:	48 b8 ba 6e 21 04 80 	movabs $0x8004216eba,%rax
  80042001a0:	00 00 00 
  80042001a3:	ff d0                	callq  *%rax

	// Acquire the big kernel lock before waking up APs
	// Your code here:
	lock_kernel();
  80042001a5:	48 b8 89 00 20 04 80 	movabs $0x8004200089,%rax
  80042001ac:	00 00 00 
  80042001af:	ff d0                	callq  *%rax
	// Starting non-boot CPUs
	boot_aps();
  80042001b1:	48 b8 26 02 20 04 80 	movabs $0x8004200226,%rax
  80042001b8:	00 00 00 
  80042001bb:	ff d0                	callq  *%rax

	// Start fs.
	ENV_CREATE(fs_fs, ENV_TYPE_FS);
  80042001bd:	be 01 00 00 00       	mov    $0x1,%esi
  80042001c2:	48 bf e7 46 46 04 80 	movabs $0x80044646e7,%rdi
  80042001c9:	00 00 00 
  80042001cc:	48 b8 07 7e 20 04 80 	movabs $0x8004207e07,%rax
  80042001d3:	00 00 00 
  80042001d6:	ff d0                	callq  *%rax

#if !defined(TEST_NO_NS)
	// Start ns.
	ENV_CREATE(net_ns, ENV_TYPE_NS);
  80042001d8:	be 02 00 00 00       	mov    $0x2,%esi
  80042001dd:	48 bf 42 90 51 04 80 	movabs $0x8004519042,%rdi
  80042001e4:	00 00 00 
  80042001e7:	48 b8 07 7e 20 04 80 	movabs $0x8004207e07,%rax
  80042001ee:	00 00 00 
  80042001f1:	ff d0                	callq  *%rax
#endif

#if defined(TEST)
	// Don't touch -- used by grading script!
	ENV_CREATE(TEST, ENV_TYPE_USER);
  80042001f3:	be 00 00 00 00       	mov    $0x0,%esi
  80042001f8:	48 bf af 25 4a 04 80 	movabs $0x80044a25af,%rdi
  80042001ff:	00 00 00 
  8004200202:	48 b8 07 7e 20 04 80 	movabs $0x8004207e07,%rax
  8004200209:	00 00 00 
  800420020c:	ff d0                	callq  *%rax
//<<<<<<< HEAD
	//ENV_CREATE(user_spawnhello, ENV_TYPE_USER);
#endif // TEST*

	// Should not be necessary - drains keyboard because interrupt has given up.
	kbd_intr();
  800420020e:	48 b8 81 10 20 04 80 	movabs $0x8004201081,%rax
  8004200215:	00 00 00 
  8004200218:	ff d0                	callq  *%rax
	//ENV_CREATE(user_yield, ENV_TYPE_USER);

//#endif // TEST*
//>>>>>>> lab4
	// Schedule and run the first user environment!
	sched_yield();
  800420021a:	48 b8 db bc 20 04 80 	movabs $0x800420bcdb,%rax
  8004200221:	00 00 00 
  8004200224:	ff d0                	callq  *%rax

0000008004200226 <boot_aps>:
void *mpentry_kstack;

// Start the non-boot (AP) processors.
static void
boot_aps(void)
{
  8004200226:	55                   	push   %rbp
  8004200227:	48 89 e5             	mov    %rsp,%rbp
  800420022a:	48 83 ec 30          	sub    $0x30,%rsp
	extern unsigned char mpentry_start[], mpentry_end[];
	void *code;
	struct CpuInfo *c;

	// Write entry code to unused memory at MPENTRY_PADDR
	code = KADDR(MPENTRY_PADDR);
  800420022e:	48 c7 45 f0 00 70 00 	movq   $0x7000,-0x10(%rbp)
  8004200235:	00 
  8004200236:	48 8b 45 f0          	mov    -0x10(%rbp),%rax
  800420023a:	48 c1 e8 0c          	shr    $0xc,%rax
  800420023e:	89 45 ec             	mov    %eax,-0x14(%rbp)
  8004200241:	8b 55 ec             	mov    -0x14(%rbp),%edx
  8004200244:	48 b8 e0 c7 63 04 80 	movabs $0x800463c7e0,%rax
  800420024b:	00 00 00 
  800420024e:	48 8b 00             	mov    (%rax),%rax
  8004200251:	48 39 c2             	cmp    %rax,%rdx
  8004200254:	72 32                	jb     8004200288 <boot_aps+0x62>
  8004200256:	48 8b 45 f0          	mov    -0x10(%rbp),%rax
  800420025a:	48 89 c1             	mov    %rax,%rcx
  800420025d:	48 ba c0 6f 21 04 80 	movabs $0x8004216fc0,%rdx
  8004200264:	00 00 00 
  8004200267:	be 7a 00 00 00       	mov    $0x7a,%esi
  800420026c:	48 bf e3 6f 21 04 80 	movabs $0x8004216fe3,%rdi
  8004200273:	00 00 00 
  8004200276:	b8 00 00 00 00       	mov    $0x0,%eax
  800420027b:	49 b8 f2 04 20 04 80 	movabs $0x80042004f2,%r8
  8004200282:	00 00 00 
  8004200285:	41 ff d0             	callq  *%r8
  8004200288:	48 b8 00 00 00 04 80 	movabs $0x8004000000,%rax
  800420028f:	00 00 00 
  8004200292:	48 03 45 f0          	add    -0x10(%rbp),%rax
  8004200296:	48 89 45 e0          	mov    %rax,-0x20(%rbp)
	memmove(code, mpentry_start, mpentry_end - mpentry_start);
  800420029a:	48 ba ce 4b 21 04 80 	movabs $0x8004214bce,%rdx
  80042002a1:	00 00 00 
  80042002a4:	48 b8 e8 4a 21 04 80 	movabs $0x8004214ae8,%rax
  80042002ab:	00 00 00 
  80042002ae:	48 89 d1             	mov    %rdx,%rcx
  80042002b1:	48 29 c1             	sub    %rax,%rcx
  80042002b4:	48 89 c8             	mov    %rcx,%rax
  80042002b7:	48 89 c2             	mov    %rax,%rdx
  80042002ba:	48 8b 45 e0          	mov    -0x20(%rbp),%rax
  80042002be:	48 be e8 4a 21 04 80 	movabs $0x8004214ae8,%rsi
  80042002c5:	00 00 00 
  80042002c8:	48 89 c7             	mov    %rax,%rdi
  80042002cb:	48 b8 de e6 20 04 80 	movabs $0x800420e6de,%rax
  80042002d2:	00 00 00 
  80042002d5:	ff d0                	callq  *%rax
	// Boot each AP one at a time
	for (c = cpus; c < cpus + ncpu; c++) {
  80042002d7:	48 b8 20 e0 67 04 80 	movabs $0x800467e020,%rax
  80042002de:	00 00 00 
  80042002e1:	48 89 45 f8          	mov    %rax,-0x8(%rbp)
  80042002e5:	e9 0d 01 00 00       	jmpq   80042003f7 <boot_aps+0x1d1>
		if (c == cpus + cpunum())  // We've started already.
  80042002ea:	48 b8 d5 55 21 04 80 	movabs $0x80042155d5,%rax
  80042002f1:	00 00 00 
  80042002f4:	ff d0                	callq  *%rax
  80042002f6:	48 98                	cltq   
  80042002f8:	48 c1 e0 03          	shl    $0x3,%rax
  80042002fc:	48 89 c2             	mov    %rax,%rdx
  80042002ff:	48 c1 e2 04          	shl    $0x4,%rdx
  8004200303:	48 29 c2             	sub    %rax,%rdx
  8004200306:	48 b8 20 e0 67 04 80 	movabs $0x800467e020,%rax
  800420030d:	00 00 00 
  8004200310:	48 01 d0             	add    %rdx,%rax
  8004200313:	48 3b 45 f8          	cmp    -0x8(%rbp),%rax
  8004200317:	0f 84 d4 00 00 00    	je     80042003f1 <boot_aps+0x1cb>
			continue;

		// Tell mpentry.S what stack to use 
		mpentry_kstack = percpu_kstacks[c - cpus] + KSTKSIZE;
  800420031d:	48 8b 55 f8          	mov    -0x8(%rbp),%rdx
  8004200321:	48 b8 20 e0 67 04 80 	movabs $0x800467e020,%rax
  8004200328:	00 00 00 
  800420032b:	48 89 d1             	mov    %rdx,%rcx
  800420032e:	48 29 c1             	sub    %rax,%rcx
  8004200331:	48 89 c8             	mov    %rcx,%rax
  8004200334:	48 89 c2             	mov    %rax,%rdx
  8004200337:	48 c1 fa 03          	sar    $0x3,%rdx
  800420033b:	48 b8 ef ee ee ee ee 	movabs $0xeeeeeeeeeeeeeeef,%rax
  8004200342:	ee ee ee 
  8004200345:	48 0f af c2          	imul   %rdx,%rax
  8004200349:	48 83 c0 01          	add    $0x1,%rax
  800420034d:	48 89 c2             	mov    %rax,%rdx
  8004200350:	48 c1 e2 10          	shl    $0x10,%rdx
  8004200354:	48 b8 00 f0 67 04 80 	movabs $0x800467f000,%rax
  800420035b:	00 00 00 
  800420035e:	48 01 c2             	add    %rax,%rdx
  8004200361:	48 b8 c8 c7 63 04 80 	movabs $0x800463c7c8,%rax
  8004200368:	00 00 00 
  800420036b:	48 89 10             	mov    %rdx,(%rax)
		// Start the CPU at mpentry_start
		lapic_startap(c->cpu_id, PADDR(code));
  800420036e:	48 8b 45 e0          	mov    -0x20(%rbp),%rax
  8004200372:	48 89 45 d8          	mov    %rax,-0x28(%rbp)
  8004200376:	48 b8 ff ff ff 03 80 	movabs $0x8003ffffff,%rax
  800420037d:	00 00 00 
  8004200380:	48 39 45 d8          	cmp    %rax,-0x28(%rbp)
  8004200384:	77 32                	ja     80042003b8 <boot_aps+0x192>
  8004200386:	48 8b 45 d8          	mov    -0x28(%rbp),%rax
  800420038a:	48 89 c1             	mov    %rax,%rcx
  800420038d:	48 ba f0 6f 21 04 80 	movabs $0x8004216ff0,%rdx
  8004200394:	00 00 00 
  8004200397:	be 84 00 00 00       	mov    $0x84,%esi
  800420039c:	48 bf e3 6f 21 04 80 	movabs $0x8004216fe3,%rdi
  80042003a3:	00 00 00 
  80042003a6:	b8 00 00 00 00       	mov    $0x0,%eax
  80042003ab:	49 b8 f2 04 20 04 80 	movabs $0x80042004f2,%r8
  80042003b2:	00 00 00 
  80042003b5:	41 ff d0             	callq  *%r8
  80042003b8:	48 b8 00 00 00 fc 7f 	movabs $0xffffff7ffc000000,%rax
  80042003bf:	ff ff ff 
  80042003c2:	48 03 45 d8          	add    -0x28(%rbp),%rax
  80042003c6:	89 c2                	mov    %eax,%edx
  80042003c8:	48 8b 45 f8          	mov    -0x8(%rbp),%rax
  80042003cc:	0f b6 00             	movzbl (%rax),%eax
  80042003cf:	0f b6 c0             	movzbl %al,%eax
  80042003d2:	89 d6                	mov    %edx,%esi
  80042003d4:	89 c7                	mov    %eax,%edi
  80042003d6:	48 b8 45 56 21 04 80 	movabs $0x8004215645,%rax
  80042003dd:	00 00 00 
  80042003e0:	ff d0                	callq  *%rax
		// Wait for the CPU to finish some basic setup in mp_main()
		while(c->cpu_status != CPU_STARTED)
  80042003e2:	90                   	nop
  80042003e3:	48 8b 45 f8          	mov    -0x8(%rbp),%rax
  80042003e7:	8b 40 04             	mov    0x4(%rax),%eax
  80042003ea:	83 f8 01             	cmp    $0x1,%eax
  80042003ed:	75 f4                	jne    80042003e3 <boot_aps+0x1bd>
  80042003ef:	eb 01                	jmp    80042003f2 <boot_aps+0x1cc>
	code = KADDR(MPENTRY_PADDR);
	memmove(code, mpentry_start, mpentry_end - mpentry_start);
	// Boot each AP one at a time
	for (c = cpus; c < cpus + ncpu; c++) {
		if (c == cpus + cpunum())  // We've started already.
			continue;
  80042003f1:	90                   	nop

	// Write entry code to unused memory at MPENTRY_PADDR
	code = KADDR(MPENTRY_PADDR);
	memmove(code, mpentry_start, mpentry_end - mpentry_start);
	// Boot each AP one at a time
	for (c = cpus; c < cpus + ncpu; c++) {
  80042003f2:	48 83 45 f8 78       	addq   $0x78,-0x8(%rbp)
  80042003f7:	48 b8 e8 e3 67 04 80 	movabs $0x800467e3e8,%rax
  80042003fe:	00 00 00 
  8004200401:	8b 00                	mov    (%rax),%eax
  8004200403:	48 98                	cltq   
  8004200405:	48 c1 e0 03          	shl    $0x3,%rax
  8004200409:	48 89 c2             	mov    %rax,%rdx
  800420040c:	48 c1 e2 04          	shl    $0x4,%rdx
  8004200410:	48 29 c2             	sub    %rax,%rdx
  8004200413:	48 b8 20 e0 67 04 80 	movabs $0x800467e020,%rax
  800420041a:	00 00 00 
  800420041d:	48 01 d0             	add    %rdx,%rax
  8004200420:	48 3b 45 f8          	cmp    -0x8(%rbp),%rax
  8004200424:	0f 87 c0 fe ff ff    	ja     80042002ea <boot_aps+0xc4>
		lapic_startap(c->cpu_id, PADDR(code));
		// Wait for the CPU to finish some basic setup in mp_main()
		while(c->cpu_status != CPU_STARTED)
			;
	}
}
  800420042a:	c9                   	leaveq 
  800420042b:	c3                   	retq   

000000800420042c <mp_main>:

// Setup code for APs
void
mp_main(void)
{
  800420042c:	55                   	push   %rbp
  800420042d:	48 89 e5             	mov    %rsp,%rbp
  8004200430:	48 83 ec 10          	sub    $0x10,%rsp
	// We are in high EIP now, safe to switch to kern_pgdir 
	lcr3(boot_cr3);
  8004200434:	48 b8 d0 c7 63 04 80 	movabs $0x800463c7d0,%rax
  800420043b:	00 00 00 
  800420043e:	48 8b 00             	mov    (%rax),%rax
  8004200441:	48 89 45 f8          	mov    %rax,-0x8(%rbp)
}

static __inline void
lcr3(uint64_t val)
{
	__asm __volatile("movq %0,%%cr3" : : "r" (val));
  8004200445:	48 8b 45 f8          	mov    -0x8(%rbp),%rax
  8004200449:	0f 22 d8             	mov    %rax,%cr3
	cprintf("SMP: CPU %d starting\n", cpunum());
  800420044c:	48 b8 d5 55 21 04 80 	movabs $0x80042155d5,%rax
  8004200453:	00 00 00 
  8004200456:	ff d0                	callq  *%rax
  8004200458:	89 c6                	mov    %eax,%esi
  800420045a:	48 bf 14 70 21 04 80 	movabs $0x8004217014,%rdi
  8004200461:	00 00 00 
  8004200464:	b8 00 00 00 00       	mov    $0x0,%eax
  8004200469:	48 ba f2 89 20 04 80 	movabs $0x80042089f2,%rdx
  8004200470:	00 00 00 
  8004200473:	ff d2                	callq  *%rdx


	lapic_init();
  8004200475:	48 b8 da 53 21 04 80 	movabs $0x80042153da,%rax
  800420047c:	00 00 00 
  800420047f:	ff d0                	callq  *%rax
	env_init_percpu();
  8004200481:	48 b8 51 78 20 04 80 	movabs $0x8004207851,%rax
  8004200488:	00 00 00 
  800420048b:	ff d0                	callq  *%rax
	trap_init_percpu();
  800420048d:	48 b8 9c a6 20 04 80 	movabs $0x800420a69c,%rax
  8004200494:	00 00 00 
  8004200497:	ff d0                	callq  *%rax
	xchg(&thiscpu->cpu_status, CPU_STARTED); // tell boot_aps() we're up
  8004200499:	48 b8 d5 55 21 04 80 	movabs $0x80042155d5,%rax
  80042004a0:	00 00 00 
  80042004a3:	ff d0                	callq  *%rax
  80042004a5:	48 98                	cltq   
  80042004a7:	48 c1 e0 03          	shl    $0x3,%rax
  80042004ab:	48 89 c2             	mov    %rax,%rdx
  80042004ae:	48 c1 e2 04          	shl    $0x4,%rdx
  80042004b2:	48 29 c2             	sub    %rax,%rdx
  80042004b5:	48 b8 20 e0 67 04 80 	movabs $0x800467e020,%rax
  80042004bc:	00 00 00 
  80042004bf:	48 01 d0             	add    %rdx,%rax
  80042004c2:	48 83 c0 04          	add    $0x4,%rax
  80042004c6:	be 01 00 00 00       	mov    $0x1,%esi
  80042004cb:	48 89 c7             	mov    %rax,%rdi
  80042004ce:	48 b8 58 00 20 04 80 	movabs $0x8004200058,%rax
  80042004d5:	00 00 00 
  80042004d8:	ff d0                	callq  *%rax
	// Now that we have finished some basic setup, call sched_yield()
	// to start running processes on this CPU.  But make sure that
	// only one CPU can enter the scheduler at a time!
	//
	// Your code here:
	lock_kernel();
  80042004da:	48 b8 89 00 20 04 80 	movabs $0x8004200089,%rax
  80042004e1:	00 00 00 
  80042004e4:	ff d0                	callq  *%rax
	sched_yield();
  80042004e6:	48 b8 db bc 20 04 80 	movabs $0x800420bcdb,%rax
  80042004ed:	00 00 00 
  80042004f0:	ff d0                	callq  *%rax

00000080042004f2 <_panic>:
 * Panic is called on unresolvable fatal errors.
 * It prints "panic: mesg", and then enters the kernel monitor.
 */
void
_panic(const char *file, int line, const char *fmt,...)
{
  80042004f2:	55                   	push   %rbp
  80042004f3:	48 89 e5             	mov    %rsp,%rbp
  80042004f6:	48 81 ec f0 00 00 00 	sub    $0xf0,%rsp
  80042004fd:	48 89 bd 28 ff ff ff 	mov    %rdi,-0xd8(%rbp)
  8004200504:	89 b5 24 ff ff ff    	mov    %esi,-0xdc(%rbp)
  800420050a:	48 89 8d 68 ff ff ff 	mov    %rcx,-0x98(%rbp)
  8004200511:	4c 89 85 70 ff ff ff 	mov    %r8,-0x90(%rbp)
  8004200518:	4c 89 8d 78 ff ff ff 	mov    %r9,-0x88(%rbp)
  800420051f:	84 c0                	test   %al,%al
  8004200521:	74 20                	je     8004200543 <_panic+0x51>
  8004200523:	0f 29 45 80          	movaps %xmm0,-0x80(%rbp)
  8004200527:	0f 29 4d 90          	movaps %xmm1,-0x70(%rbp)
  800420052b:	0f 29 55 a0          	movaps %xmm2,-0x60(%rbp)
  800420052f:	0f 29 5d b0          	movaps %xmm3,-0x50(%rbp)
  8004200533:	0f 29 65 c0          	movaps %xmm4,-0x40(%rbp)
  8004200537:	0f 29 6d d0          	movaps %xmm5,-0x30(%rbp)
  800420053b:	0f 29 75 e0          	movaps %xmm6,-0x20(%rbp)
  800420053f:	0f 29 7d f0          	movaps %xmm7,-0x10(%rbp)
  8004200543:	48 89 95 18 ff ff ff 	mov    %rdx,-0xe8(%rbp)
	va_list ap;

	if (panicstr)
  800420054a:	48 b8 c0 c7 63 04 80 	movabs $0x800463c7c0,%rax
  8004200551:	00 00 00 
  8004200554:	48 8b 00             	mov    (%rax),%rax
  8004200557:	48 85 c0             	test   %rax,%rax
  800420055a:	0f 85 b7 00 00 00    	jne    8004200617 <_panic+0x125>
		goto dead;
	panicstr = fmt;
  8004200560:	48 b8 c0 c7 63 04 80 	movabs $0x800463c7c0,%rax
  8004200567:	00 00 00 
  800420056a:	48 8b 95 18 ff ff ff 	mov    -0xe8(%rbp),%rdx
  8004200571:	48 89 10             	mov    %rdx,(%rax)

	// Be extra sure that the machine is in as reasonable state
	__asm __volatile("cli; cld");
  8004200574:	fa                   	cli    
  8004200575:	fc                   	cld    

	va_start(ap, fmt);
  8004200576:	c7 85 38 ff ff ff 18 	movl   $0x18,-0xc8(%rbp)
  800420057d:	00 00 00 
  8004200580:	c7 85 3c ff ff ff 30 	movl   $0x30,-0xc4(%rbp)
  8004200587:	00 00 00 
  800420058a:	48 8d 45 10          	lea    0x10(%rbp),%rax
  800420058e:	48 89 85 40 ff ff ff 	mov    %rax,-0xc0(%rbp)
  8004200595:	48 8d 85 50 ff ff ff 	lea    -0xb0(%rbp),%rax
  800420059c:	48 89 85 48 ff ff ff 	mov    %rax,-0xb8(%rbp)
	cprintf("kernel panic on CPU %d at %s:%d: ", cpunum(), file, line);
  80042005a3:	48 b8 d5 55 21 04 80 	movabs $0x80042155d5,%rax
  80042005aa:	00 00 00 
  80042005ad:	ff d0                	callq  *%rax
  80042005af:	8b 8d 24 ff ff ff    	mov    -0xdc(%rbp),%ecx
  80042005b5:	48 8b 95 28 ff ff ff 	mov    -0xd8(%rbp),%rdx
  80042005bc:	89 c6                	mov    %eax,%esi
  80042005be:	48 bf 30 70 21 04 80 	movabs $0x8004217030,%rdi
  80042005c5:	00 00 00 
  80042005c8:	b8 00 00 00 00       	mov    $0x0,%eax
  80042005cd:	49 b8 f2 89 20 04 80 	movabs $0x80042089f2,%r8
  80042005d4:	00 00 00 
  80042005d7:	41 ff d0             	callq  *%r8
	vcprintf(fmt, ap);
  80042005da:	48 8d 95 38 ff ff ff 	lea    -0xc8(%rbp),%rdx
  80042005e1:	48 8b 85 18 ff ff ff 	mov    -0xe8(%rbp),%rax
  80042005e8:	48 89 d6             	mov    %rdx,%rsi
  80042005eb:	48 89 c7             	mov    %rax,%rdi
  80042005ee:	48 b8 93 89 20 04 80 	movabs $0x8004208993,%rax
  80042005f5:	00 00 00 
  80042005f8:	ff d0                	callq  *%rax
	cprintf("\n");
  80042005fa:	48 bf 52 70 21 04 80 	movabs $0x8004217052,%rdi
  8004200601:	00 00 00 
  8004200604:	b8 00 00 00 00       	mov    $0x0,%eax
  8004200609:	48 ba f2 89 20 04 80 	movabs $0x80042089f2,%rdx
  8004200610:	00 00 00 
  8004200613:	ff d2                	callq  *%rdx
  8004200615:	eb 01                	jmp    8004200618 <_panic+0x126>
_panic(const char *file, int line, const char *fmt,...)
{
	va_list ap;

	if (panicstr)
		goto dead;
  8004200617:	90                   	nop
	va_end(ap);

dead:
	/* break into the kernel monitor */
	while (1)
		monitor(NULL);
  8004200618:	bf 00 00 00 00       	mov    $0x0,%edi
  800420061d:	48 b8 c9 18 20 04 80 	movabs $0x80042018c9,%rax
  8004200624:	00 00 00 
  8004200627:	ff d0                	callq  *%rax
  8004200629:	eb ed                	jmp    8004200618 <_panic+0x126>

000000800420062b <_warn>:
}

/* like panic, but don't */
void
_warn(const char *file, int line, const char *fmt,...)
{
  800420062b:	55                   	push   %rbp
  800420062c:	48 89 e5             	mov    %rsp,%rbp
  800420062f:	48 81 ec f0 00 00 00 	sub    $0xf0,%rsp
  8004200636:	48 89 bd 28 ff ff ff 	mov    %rdi,-0xd8(%rbp)
  800420063d:	89 b5 24 ff ff ff    	mov    %esi,-0xdc(%rbp)
  8004200643:	48 89 8d 68 ff ff ff 	mov    %rcx,-0x98(%rbp)
  800420064a:	4c 89 85 70 ff ff ff 	mov    %r8,-0x90(%rbp)
  8004200651:	4c 89 8d 78 ff ff ff 	mov    %r9,-0x88(%rbp)
  8004200658:	84 c0                	test   %al,%al
  800420065a:	74 20                	je     800420067c <_warn+0x51>
  800420065c:	0f 29 45 80          	movaps %xmm0,-0x80(%rbp)
  8004200660:	0f 29 4d 90          	movaps %xmm1,-0x70(%rbp)
  8004200664:	0f 29 55 a0          	movaps %xmm2,-0x60(%rbp)
  8004200668:	0f 29 5d b0          	movaps %xmm3,-0x50(%rbp)
  800420066c:	0f 29 65 c0          	movaps %xmm4,-0x40(%rbp)
  8004200670:	0f 29 6d d0          	movaps %xmm5,-0x30(%rbp)
  8004200674:	0f 29 75 e0          	movaps %xmm6,-0x20(%rbp)
  8004200678:	0f 29 7d f0          	movaps %xmm7,-0x10(%rbp)
  800420067c:	48 89 95 18 ff ff ff 	mov    %rdx,-0xe8(%rbp)
	va_list ap;

	va_start(ap, fmt);
  8004200683:	c7 85 38 ff ff ff 18 	movl   $0x18,-0xc8(%rbp)
  800420068a:	00 00 00 
  800420068d:	c7 85 3c ff ff ff 30 	movl   $0x30,-0xc4(%rbp)
  8004200694:	00 00 00 
  8004200697:	48 8d 45 10          	lea    0x10(%rbp),%rax
  800420069b:	48 89 85 40 ff ff ff 	mov    %rax,-0xc0(%rbp)
  80042006a2:	48 8d 85 50 ff ff ff 	lea    -0xb0(%rbp),%rax
  80042006a9:	48 89 85 48 ff ff ff 	mov    %rax,-0xb8(%rbp)
	cprintf("kernel warning at %s:%d: ", file, line);
  80042006b0:	8b 95 24 ff ff ff    	mov    -0xdc(%rbp),%edx
  80042006b6:	48 8b 85 28 ff ff ff 	mov    -0xd8(%rbp),%rax
  80042006bd:	48 89 c6             	mov    %rax,%rsi
  80042006c0:	48 bf 54 70 21 04 80 	movabs $0x8004217054,%rdi
  80042006c7:	00 00 00 
  80042006ca:	b8 00 00 00 00       	mov    $0x0,%eax
  80042006cf:	48 b9 f2 89 20 04 80 	movabs $0x80042089f2,%rcx
  80042006d6:	00 00 00 
  80042006d9:	ff d1                	callq  *%rcx
	vcprintf(fmt, ap);
  80042006db:	48 8d 95 38 ff ff ff 	lea    -0xc8(%rbp),%rdx
  80042006e2:	48 8b 85 18 ff ff ff 	mov    -0xe8(%rbp),%rax
  80042006e9:	48 89 d6             	mov    %rdx,%rsi
  80042006ec:	48 89 c7             	mov    %rax,%rdi
  80042006ef:	48 b8 93 89 20 04 80 	movabs $0x8004208993,%rax
  80042006f6:	00 00 00 
  80042006f9:	ff d0                	callq  *%rax
	cprintf("\n");
  80042006fb:	48 bf 52 70 21 04 80 	movabs $0x8004217052,%rdi
  8004200702:	00 00 00 
  8004200705:	b8 00 00 00 00       	mov    $0x0,%eax
  800420070a:	48 ba f2 89 20 04 80 	movabs $0x80042089f2,%rdx
  8004200711:	00 00 00 
  8004200714:	ff d2                	callq  *%rdx
	va_end(ap);
}
  8004200716:	c9                   	leaveq 
  8004200717:	c3                   	retq   

0000008004200718 <delay>:
static void cons_putc(int c);

// Stupid I/O delay routine necessitated by historical PC design flaws
static void
delay(void)
{
  8004200718:	55                   	push   %rbp
  8004200719:	48 89 e5             	mov    %rsp,%rbp
  800420071c:	53                   	push   %rbx
  800420071d:	48 83 ec 28          	sub    $0x28,%rsp
  8004200721:	c7 45 f4 84 00 00 00 	movl   $0x84,-0xc(%rbp)

static __inline uint8_t
inb(int port)
{
	uint8_t data;
	__asm __volatile("inb %w1,%0" : "=a" (data) : "d" (port));
  8004200728:	8b 55 f4             	mov    -0xc(%rbp),%edx
  800420072b:	89 55 d4             	mov    %edx,-0x2c(%rbp)
  800420072e:	8b 55 d4             	mov    -0x2c(%rbp),%edx
  8004200731:	ec                   	in     (%dx),%al
  8004200732:	89 c3                	mov    %eax,%ebx
  8004200734:	88 5d f3             	mov    %bl,-0xd(%rbp)
	return data;
  8004200737:	c7 45 ec 84 00 00 00 	movl   $0x84,-0x14(%rbp)

static __inline uint8_t
inb(int port)
{
	uint8_t data;
	__asm __volatile("inb %w1,%0" : "=a" (data) : "d" (port));
  800420073e:	8b 55 ec             	mov    -0x14(%rbp),%edx
  8004200741:	89 55 d4             	mov    %edx,-0x2c(%rbp)
  8004200744:	8b 55 d4             	mov    -0x2c(%rbp),%edx
  8004200747:	ec                   	in     (%dx),%al
  8004200748:	89 c3                	mov    %eax,%ebx
  800420074a:	88 5d eb             	mov    %bl,-0x15(%rbp)
	return data;
  800420074d:	c7 45 e4 84 00 00 00 	movl   $0x84,-0x1c(%rbp)

static __inline uint8_t
inb(int port)
{
	uint8_t data;
	__asm __volatile("inb %w1,%0" : "=a" (data) : "d" (port));
  8004200754:	8b 55 e4             	mov    -0x1c(%rbp),%edx
  8004200757:	89 55 d4             	mov    %edx,-0x2c(%rbp)
  800420075a:	8b 55 d4             	mov    -0x2c(%rbp),%edx
  800420075d:	ec                   	in     (%dx),%al
  800420075e:	89 c3                	mov    %eax,%ebx
  8004200760:	88 5d e3             	mov    %bl,-0x1d(%rbp)
	return data;
  8004200763:	c7 45 dc 84 00 00 00 	movl   $0x84,-0x24(%rbp)

static __inline uint8_t
inb(int port)
{
	uint8_t data;
	__asm __volatile("inb %w1,%0" : "=a" (data) : "d" (port));
  800420076a:	8b 55 dc             	mov    -0x24(%rbp),%edx
  800420076d:	89 55 d4             	mov    %edx,-0x2c(%rbp)
  8004200770:	8b 55 d4             	mov    -0x2c(%rbp),%edx
  8004200773:	ec                   	in     (%dx),%al
  8004200774:	89 c3                	mov    %eax,%ebx
  8004200776:	88 5d db             	mov    %bl,-0x25(%rbp)
	inb(0x84);
	inb(0x84);
	inb(0x84);
	inb(0x84);
}
  8004200779:	48 83 c4 28          	add    $0x28,%rsp
  800420077d:	5b                   	pop    %rbx
  800420077e:	5d                   	pop    %rbp
  800420077f:	c3                   	retq   

0000008004200780 <serial_proc_data>:

static bool serial_exists;

static int
serial_proc_data(void)
{
  8004200780:	55                   	push   %rbp
  8004200781:	48 89 e5             	mov    %rsp,%rbp
  8004200784:	53                   	push   %rbx
  8004200785:	48 83 ec 18          	sub    $0x18,%rsp
  8004200789:	c7 45 f4 fd 03 00 00 	movl   $0x3fd,-0xc(%rbp)
  8004200790:	8b 55 f4             	mov    -0xc(%rbp),%edx
  8004200793:	89 55 e4             	mov    %edx,-0x1c(%rbp)
  8004200796:	8b 55 e4             	mov    -0x1c(%rbp),%edx
  8004200799:	ec                   	in     (%dx),%al
  800420079a:	89 c3                	mov    %eax,%ebx
  800420079c:	88 5d f3             	mov    %bl,-0xd(%rbp)
	return data;
  800420079f:	0f b6 45 f3          	movzbl -0xd(%rbp),%eax
	if (!(inb(COM1+COM_LSR) & COM_LSR_DATA))
  80042007a3:	0f b6 c0             	movzbl %al,%eax
  80042007a6:	83 e0 01             	and    $0x1,%eax
  80042007a9:	85 c0                	test   %eax,%eax
  80042007ab:	75 07                	jne    80042007b4 <serial_proc_data+0x34>
		return -1;
  80042007ad:	b8 ff ff ff ff       	mov    $0xffffffff,%eax
  80042007b2:	eb 1d                	jmp    80042007d1 <serial_proc_data+0x51>
  80042007b4:	c7 45 ec f8 03 00 00 	movl   $0x3f8,-0x14(%rbp)

static __inline uint8_t
inb(int port)
{
	uint8_t data;
	__asm __volatile("inb %w1,%0" : "=a" (data) : "d" (port));
  80042007bb:	8b 55 ec             	mov    -0x14(%rbp),%edx
  80042007be:	89 55 e4             	mov    %edx,-0x1c(%rbp)
  80042007c1:	8b 55 e4             	mov    -0x1c(%rbp),%edx
  80042007c4:	ec                   	in     (%dx),%al
  80042007c5:	89 c3                	mov    %eax,%ebx
  80042007c7:	88 5d eb             	mov    %bl,-0x15(%rbp)
	return data;
  80042007ca:	0f b6 45 eb          	movzbl -0x15(%rbp),%eax
	return inb(COM1+COM_RX);
  80042007ce:	0f b6 c0             	movzbl %al,%eax
}
  80042007d1:	48 83 c4 18          	add    $0x18,%rsp
  80042007d5:	5b                   	pop    %rbx
  80042007d6:	5d                   	pop    %rbp
  80042007d7:	c3                   	retq   

00000080042007d8 <serial_intr>:

void
serial_intr(void)
{
  80042007d8:	55                   	push   %rbp
  80042007d9:	48 89 e5             	mov    %rsp,%rbp
	if (serial_exists)
  80042007dc:	48 b8 00 b0 63 04 80 	movabs $0x800463b000,%rax
  80042007e3:	00 00 00 
  80042007e6:	0f b6 00             	movzbl (%rax),%eax
  80042007e9:	84 c0                	test   %al,%al
  80042007eb:	74 16                	je     8004200803 <serial_intr+0x2b>
		cons_intr(serial_proc_data);
  80042007ed:	48 bf 80 07 20 04 80 	movabs $0x8004200780,%rdi
  80042007f4:	00 00 00 
  80042007f7:	48 b8 d2 10 20 04 80 	movabs $0x80042010d2,%rax
  80042007fe:	00 00 00 
  8004200801:	ff d0                	callq  *%rax
}
  8004200803:	5d                   	pop    %rbp
  8004200804:	c3                   	retq   

0000008004200805 <serial_putc>:

static void
serial_putc(int c)
{
  8004200805:	55                   	push   %rbp
  8004200806:	48 89 e5             	mov    %rsp,%rbp
  8004200809:	53                   	push   %rbx
  800420080a:	48 83 ec 28          	sub    $0x28,%rsp
  800420080e:	89 7d d4             	mov    %edi,-0x2c(%rbp)
	int i;

	for (i = 0;
  8004200811:	c7 45 f4 00 00 00 00 	movl   $0x0,-0xc(%rbp)
  8004200818:	eb 10                	jmp    800420082a <serial_putc+0x25>
	     !(inb(COM1 + COM_LSR) & COM_LSR_TXRDY) && i < 12800;
	     i++)
		delay();
  800420081a:	48 b8 18 07 20 04 80 	movabs $0x8004200718,%rax
  8004200821:	00 00 00 
  8004200824:	ff d0                	callq  *%rax
{
	int i;

	for (i = 0;
	     !(inb(COM1 + COM_LSR) & COM_LSR_TXRDY) && i < 12800;
	     i++)
  8004200826:	83 45 f4 01          	addl   $0x1,-0xc(%rbp)
  800420082a:	c7 45 f0 fd 03 00 00 	movl   $0x3fd,-0x10(%rbp)

static __inline uint8_t
inb(int port)
{
	uint8_t data;
	__asm __volatile("inb %w1,%0" : "=a" (data) : "d" (port));
  8004200831:	8b 55 f0             	mov    -0x10(%rbp),%edx
  8004200834:	89 55 d0             	mov    %edx,-0x30(%rbp)
  8004200837:	8b 55 d0             	mov    -0x30(%rbp),%edx
  800420083a:	ec                   	in     (%dx),%al
  800420083b:	89 c3                	mov    %eax,%ebx
  800420083d:	88 5d ef             	mov    %bl,-0x11(%rbp)
	return data;
  8004200840:	0f b6 45 ef          	movzbl -0x11(%rbp),%eax
serial_putc(int c)
{
	int i;

	for (i = 0;
	     !(inb(COM1 + COM_LSR) & COM_LSR_TXRDY) && i < 12800;
  8004200844:	0f b6 c0             	movzbl %al,%eax
  8004200847:	83 e0 20             	and    $0x20,%eax
static void
serial_putc(int c)
{
	int i;

	for (i = 0;
  800420084a:	85 c0                	test   %eax,%eax
  800420084c:	75 09                	jne    8004200857 <serial_putc+0x52>
	     !(inb(COM1 + COM_LSR) & COM_LSR_TXRDY) && i < 12800;
  800420084e:	81 7d f4 ff 31 00 00 	cmpl   $0x31ff,-0xc(%rbp)
  8004200855:	7e c3                	jle    800420081a <serial_putc+0x15>
	     i++)
		delay();

	outb(COM1 + COM_TX, c);
  8004200857:	8b 45 d4             	mov    -0x2c(%rbp),%eax
  800420085a:	0f b6 c0             	movzbl %al,%eax
  800420085d:	c7 45 e8 f8 03 00 00 	movl   $0x3f8,-0x18(%rbp)
  8004200864:	88 45 e7             	mov    %al,-0x19(%rbp)
}

static __inline void
outb(int port, uint8_t data)
{
	__asm __volatile("outb %0,%w1" : : "a" (data), "d" (port));
  8004200867:	0f b6 45 e7          	movzbl -0x19(%rbp),%eax
  800420086b:	8b 55 e8             	mov    -0x18(%rbp),%edx
  800420086e:	ee                   	out    %al,(%dx)
}
  800420086f:	48 83 c4 28          	add    $0x28,%rsp
  8004200873:	5b                   	pop    %rbx
  8004200874:	5d                   	pop    %rbp
  8004200875:	c3                   	retq   

0000008004200876 <serial_init>:

static void
serial_init(void)
{
  8004200876:	55                   	push   %rbp
  8004200877:	48 89 e5             	mov    %rsp,%rbp
  800420087a:	53                   	push   %rbx
  800420087b:	48 83 ec 68          	sub    $0x68,%rsp
  800420087f:	c7 45 ec fa 03 00 00 	movl   $0x3fa,-0x14(%rbp)
  8004200886:	c6 45 eb 00          	movb   $0x0,-0x15(%rbp)
  800420088a:	0f b6 45 eb          	movzbl -0x15(%rbp),%eax
  800420088e:	8b 55 ec             	mov    -0x14(%rbp),%edx
  8004200891:	ee                   	out    %al,(%dx)
  8004200892:	c7 45 e4 fb 03 00 00 	movl   $0x3fb,-0x1c(%rbp)
  8004200899:	c6 45 e3 80          	movb   $0x80,-0x1d(%rbp)
  800420089d:	0f b6 45 e3          	movzbl -0x1d(%rbp),%eax
  80042008a1:	8b 55 e4             	mov    -0x1c(%rbp),%edx
  80042008a4:	ee                   	out    %al,(%dx)
  80042008a5:	c7 45 dc f8 03 00 00 	movl   $0x3f8,-0x24(%rbp)
  80042008ac:	c6 45 db 0c          	movb   $0xc,-0x25(%rbp)
  80042008b0:	0f b6 45 db          	movzbl -0x25(%rbp),%eax
  80042008b4:	8b 55 dc             	mov    -0x24(%rbp),%edx
  80042008b7:	ee                   	out    %al,(%dx)
  80042008b8:	c7 45 d4 f9 03 00 00 	movl   $0x3f9,-0x2c(%rbp)
  80042008bf:	c6 45 d3 00          	movb   $0x0,-0x2d(%rbp)
  80042008c3:	0f b6 45 d3          	movzbl -0x2d(%rbp),%eax
  80042008c7:	8b 55 d4             	mov    -0x2c(%rbp),%edx
  80042008ca:	ee                   	out    %al,(%dx)
  80042008cb:	c7 45 cc fb 03 00 00 	movl   $0x3fb,-0x34(%rbp)
  80042008d2:	c6 45 cb 03          	movb   $0x3,-0x35(%rbp)
  80042008d6:	0f b6 45 cb          	movzbl -0x35(%rbp),%eax
  80042008da:	8b 55 cc             	mov    -0x34(%rbp),%edx
  80042008dd:	ee                   	out    %al,(%dx)
  80042008de:	c7 45 c4 fc 03 00 00 	movl   $0x3fc,-0x3c(%rbp)
  80042008e5:	c6 45 c3 00          	movb   $0x0,-0x3d(%rbp)
  80042008e9:	0f b6 45 c3          	movzbl -0x3d(%rbp),%eax
  80042008ed:	8b 55 c4             	mov    -0x3c(%rbp),%edx
  80042008f0:	ee                   	out    %al,(%dx)
  80042008f1:	c7 45 bc f9 03 00 00 	movl   $0x3f9,-0x44(%rbp)
  80042008f8:	c6 45 bb 01          	movb   $0x1,-0x45(%rbp)
  80042008fc:	0f b6 45 bb          	movzbl -0x45(%rbp),%eax
  8004200900:	8b 55 bc             	mov    -0x44(%rbp),%edx
  8004200903:	ee                   	out    %al,(%dx)
  8004200904:	c7 45 b4 fd 03 00 00 	movl   $0x3fd,-0x4c(%rbp)

static __inline uint8_t
inb(int port)
{
	uint8_t data;
	__asm __volatile("inb %w1,%0" : "=a" (data) : "d" (port));
  800420090b:	8b 55 b4             	mov    -0x4c(%rbp),%edx
  800420090e:	89 55 9c             	mov    %edx,-0x64(%rbp)
  8004200911:	8b 55 9c             	mov    -0x64(%rbp),%edx
  8004200914:	ec                   	in     (%dx),%al
  8004200915:	89 c3                	mov    %eax,%ebx
  8004200917:	88 5d b3             	mov    %bl,-0x4d(%rbp)
	return data;
  800420091a:	0f b6 45 b3          	movzbl -0x4d(%rbp),%eax
	// Enable rcv interrupts
	outb(COM1+COM_IER, COM_IER_RDI);

	// Clear any preexisting overrun indications and interrupts
	// Serial port doesn't exist if COM_LSR returns 0xFF
	serial_exists = (inb(COM1+COM_LSR) != 0xFF);
  800420091e:	3c ff                	cmp    $0xff,%al
  8004200920:	0f 95 c2             	setne  %dl
  8004200923:	48 b8 00 b0 63 04 80 	movabs $0x800463b000,%rax
  800420092a:	00 00 00 
  800420092d:	88 10                	mov    %dl,(%rax)
  800420092f:	c7 45 ac fa 03 00 00 	movl   $0x3fa,-0x54(%rbp)

static __inline uint8_t
inb(int port)
{
	uint8_t data;
	__asm __volatile("inb %w1,%0" : "=a" (data) : "d" (port));
  8004200936:	8b 55 ac             	mov    -0x54(%rbp),%edx
  8004200939:	89 55 9c             	mov    %edx,-0x64(%rbp)
  800420093c:	8b 55 9c             	mov    -0x64(%rbp),%edx
  800420093f:	ec                   	in     (%dx),%al
  8004200940:	89 c3                	mov    %eax,%ebx
  8004200942:	88 5d ab             	mov    %bl,-0x55(%rbp)
	return data;
  8004200945:	c7 45 a4 f8 03 00 00 	movl   $0x3f8,-0x5c(%rbp)

static __inline uint8_t
inb(int port)
{
	uint8_t data;
	__asm __volatile("inb %w1,%0" : "=a" (data) : "d" (port));
  800420094c:	8b 55 a4             	mov    -0x5c(%rbp),%edx
  800420094f:	89 55 9c             	mov    %edx,-0x64(%rbp)
  8004200952:	8b 55 9c             	mov    -0x64(%rbp),%edx
  8004200955:	ec                   	in     (%dx),%al
  8004200956:	89 c3                	mov    %eax,%ebx
  8004200958:	88 5d a3             	mov    %bl,-0x5d(%rbp)
	(void) inb(COM1+COM_IIR);
	(void) inb(COM1+COM_RX);

	// Enable serial interrupts
	if (serial_exists)
  800420095b:	48 b8 00 b0 63 04 80 	movabs $0x800463b000,%rax
  8004200962:	00 00 00 
  8004200965:	0f b6 00             	movzbl (%rax),%eax
  8004200968:	84 c0                	test   %al,%al
  800420096a:	74 23                	je     800420098f <serial_init+0x119>
		irq_setmask_8259A(irq_mask_8259A & ~(1<<4));
  800420096c:	48 b8 94 a6 22 04 80 	movabs $0x800422a694,%rax
  8004200973:	00 00 00 
  8004200976:	0f b7 00             	movzwl (%rax),%eax
  8004200979:	0f b7 c0             	movzwl %ax,%eax
  800420097c:	25 ef ff 00 00       	and    $0xffef,%eax
  8004200981:	89 c7                	mov    %eax,%edi
  8004200983:	48 b8 3e 88 20 04 80 	movabs $0x800420883e,%rax
  800420098a:	00 00 00 
  800420098d:	ff d0                	callq  *%rax
}
  800420098f:	48 83 c4 68          	add    $0x68,%rsp
  8004200993:	5b                   	pop    %rbx
  8004200994:	5d                   	pop    %rbp
  8004200995:	c3                   	retq   

0000008004200996 <lpt_putc>:
// For information on PC parallel port programming, see the class References
// page.

static void
lpt_putc(int c)
{
  8004200996:	55                   	push   %rbp
  8004200997:	48 89 e5             	mov    %rsp,%rbp
  800420099a:	53                   	push   %rbx
  800420099b:	48 83 ec 38          	sub    $0x38,%rsp
  800420099f:	89 7d c4             	mov    %edi,-0x3c(%rbp)
	int i;

	for (i = 0; !(inb(0x378+1) & 0x80) && i < 12800; i++)
  80042009a2:	c7 45 f4 00 00 00 00 	movl   $0x0,-0xc(%rbp)
  80042009a9:	eb 10                	jmp    80042009bb <lpt_putc+0x25>
		delay();
  80042009ab:	48 b8 18 07 20 04 80 	movabs $0x8004200718,%rax
  80042009b2:	00 00 00 
  80042009b5:	ff d0                	callq  *%rax
static void
lpt_putc(int c)
{
	int i;

	for (i = 0; !(inb(0x378+1) & 0x80) && i < 12800; i++)
  80042009b7:	83 45 f4 01          	addl   $0x1,-0xc(%rbp)
  80042009bb:	c7 45 f0 79 03 00 00 	movl   $0x379,-0x10(%rbp)
  80042009c2:	8b 55 f0             	mov    -0x10(%rbp),%edx
  80042009c5:	89 55 c0             	mov    %edx,-0x40(%rbp)
  80042009c8:	8b 55 c0             	mov    -0x40(%rbp),%edx
  80042009cb:	ec                   	in     (%dx),%al
  80042009cc:	89 c3                	mov    %eax,%ebx
  80042009ce:	88 5d ef             	mov    %bl,-0x11(%rbp)
	return data;
  80042009d1:	0f b6 45 ef          	movzbl -0x11(%rbp),%eax
  80042009d5:	84 c0                	test   %al,%al
  80042009d7:	78 09                	js     80042009e2 <lpt_putc+0x4c>
  80042009d9:	81 7d f4 ff 31 00 00 	cmpl   $0x31ff,-0xc(%rbp)
  80042009e0:	7e c9                	jle    80042009ab <lpt_putc+0x15>
		delay();
	outb(0x378+0, c);
  80042009e2:	8b 45 c4             	mov    -0x3c(%rbp),%eax
  80042009e5:	0f b6 c0             	movzbl %al,%eax
  80042009e8:	c7 45 e8 78 03 00 00 	movl   $0x378,-0x18(%rbp)
  80042009ef:	88 45 e7             	mov    %al,-0x19(%rbp)
}

static __inline void
outb(int port, uint8_t data)
{
	__asm __volatile("outb %0,%w1" : : "a" (data), "d" (port));
  80042009f2:	0f b6 45 e7          	movzbl -0x19(%rbp),%eax
  80042009f6:	8b 55 e8             	mov    -0x18(%rbp),%edx
  80042009f9:	ee                   	out    %al,(%dx)
  80042009fa:	c7 45 e0 7a 03 00 00 	movl   $0x37a,-0x20(%rbp)
  8004200a01:	c6 45 df 0d          	movb   $0xd,-0x21(%rbp)
  8004200a05:	0f b6 45 df          	movzbl -0x21(%rbp),%eax
  8004200a09:	8b 55 e0             	mov    -0x20(%rbp),%edx
  8004200a0c:	ee                   	out    %al,(%dx)
  8004200a0d:	c7 45 d8 7a 03 00 00 	movl   $0x37a,-0x28(%rbp)
  8004200a14:	c6 45 d7 08          	movb   $0x8,-0x29(%rbp)
  8004200a18:	0f b6 45 d7          	movzbl -0x29(%rbp),%eax
  8004200a1c:	8b 55 d8             	mov    -0x28(%rbp),%edx
  8004200a1f:	ee                   	out    %al,(%dx)
	outb(0x378+2, 0x08|0x04|0x01);
	outb(0x378+2, 0x08);
}
  8004200a20:	48 83 c4 38          	add    $0x38,%rsp
  8004200a24:	5b                   	pop    %rbx
  8004200a25:	5d                   	pop    %rbp
  8004200a26:	c3                   	retq   

0000008004200a27 <cga_init>:
static uint16_t *crt_buf;
static uint16_t crt_pos;

static void
cga_init(void)
{
  8004200a27:	55                   	push   %rbp
  8004200a28:	48 89 e5             	mov    %rsp,%rbp
  8004200a2b:	53                   	push   %rbx
  8004200a2c:	48 83 ec 38          	sub    $0x38,%rsp
	volatile uint16_t *cp;
	uint16_t was;
	unsigned pos;

	cp = (uint16_t*) (KERNBASE + CGA_BUF);
  8004200a30:	c7 45 f0 00 80 0b 04 	movl   $0x40b8000,-0x10(%rbp)
  8004200a37:	c7 45 f4 80 00 00 00 	movl   $0x80,-0xc(%rbp)
	was = *cp;
  8004200a3e:	48 8b 45 f0          	mov    -0x10(%rbp),%rax
  8004200a42:	0f b7 00             	movzwl (%rax),%eax
  8004200a45:	66 89 45 ee          	mov    %ax,-0x12(%rbp)
	*cp = (uint16_t) 0xA55A;
  8004200a49:	48 8b 45 f0          	mov    -0x10(%rbp),%rax
  8004200a4d:	66 c7 00 5a a5       	movw   $0xa55a,(%rax)
	if (*cp != 0xA55A) {
  8004200a52:	48 8b 45 f0          	mov    -0x10(%rbp),%rax
  8004200a56:	0f b7 00             	movzwl (%rax),%eax
  8004200a59:	66 3d 5a a5          	cmp    $0xa55a,%ax
  8004200a5d:	74 20                	je     8004200a7f <cga_init+0x58>
		cp = (uint16_t*) (KERNBASE + MONO_BUF);
  8004200a5f:	c7 45 f0 00 00 0b 04 	movl   $0x40b0000,-0x10(%rbp)
  8004200a66:	c7 45 f4 80 00 00 00 	movl   $0x80,-0xc(%rbp)
		addr_6845 = MONO_BASE;
  8004200a6d:	48 b8 04 b0 63 04 80 	movabs $0x800463b004,%rax
  8004200a74:	00 00 00 
  8004200a77:	c7 00 b4 03 00 00    	movl   $0x3b4,(%rax)
  8004200a7d:	eb 1b                	jmp    8004200a9a <cga_init+0x73>
	} else {
		*cp = was;
  8004200a7f:	48 8b 45 f0          	mov    -0x10(%rbp),%rax
  8004200a83:	0f b7 55 ee          	movzwl -0x12(%rbp),%edx
  8004200a87:	66 89 10             	mov    %dx,(%rax)
		addr_6845 = CGA_BASE;
  8004200a8a:	48 b8 04 b0 63 04 80 	movabs $0x800463b004,%rax
  8004200a91:	00 00 00 
  8004200a94:	c7 00 d4 03 00 00    	movl   $0x3d4,(%rax)
	}

	/* Extract cursor location */
	outb(addr_6845, 14);
  8004200a9a:	48 b8 04 b0 63 04 80 	movabs $0x800463b004,%rax
  8004200aa1:	00 00 00 
  8004200aa4:	8b 00                	mov    (%rax),%eax
  8004200aa6:	89 45 e4             	mov    %eax,-0x1c(%rbp)
  8004200aa9:	c6 45 e3 0e          	movb   $0xe,-0x1d(%rbp)
  8004200aad:	0f b6 45 e3          	movzbl -0x1d(%rbp),%eax
  8004200ab1:	8b 55 e4             	mov    -0x1c(%rbp),%edx
  8004200ab4:	ee                   	out    %al,(%dx)
	pos = inb(addr_6845 + 1) << 8;
  8004200ab5:	48 b8 04 b0 63 04 80 	movabs $0x800463b004,%rax
  8004200abc:	00 00 00 
  8004200abf:	8b 00                	mov    (%rax),%eax
  8004200ac1:	83 c0 01             	add    $0x1,%eax
  8004200ac4:	89 45 dc             	mov    %eax,-0x24(%rbp)

static __inline uint8_t
inb(int port)
{
	uint8_t data;
	__asm __volatile("inb %w1,%0" : "=a" (data) : "d" (port));
  8004200ac7:	8b 55 dc             	mov    -0x24(%rbp),%edx
  8004200aca:	89 55 c4             	mov    %edx,-0x3c(%rbp)
  8004200acd:	8b 55 c4             	mov    -0x3c(%rbp),%edx
  8004200ad0:	ec                   	in     (%dx),%al
  8004200ad1:	89 c3                	mov    %eax,%ebx
  8004200ad3:	88 5d db             	mov    %bl,-0x25(%rbp)
	return data;
  8004200ad6:	0f b6 45 db          	movzbl -0x25(%rbp),%eax
  8004200ada:	0f b6 c0             	movzbl %al,%eax
  8004200add:	c1 e0 08             	shl    $0x8,%eax
  8004200ae0:	89 45 e8             	mov    %eax,-0x18(%rbp)
	outb(addr_6845, 15);
  8004200ae3:	48 b8 04 b0 63 04 80 	movabs $0x800463b004,%rax
  8004200aea:	00 00 00 
  8004200aed:	8b 00                	mov    (%rax),%eax
  8004200aef:	89 45 d4             	mov    %eax,-0x2c(%rbp)
  8004200af2:	c6 45 d3 0f          	movb   $0xf,-0x2d(%rbp)
}

static __inline void
outb(int port, uint8_t data)
{
	__asm __volatile("outb %0,%w1" : : "a" (data), "d" (port));
  8004200af6:	0f b6 45 d3          	movzbl -0x2d(%rbp),%eax
  8004200afa:	8b 55 d4             	mov    -0x2c(%rbp),%edx
  8004200afd:	ee                   	out    %al,(%dx)
	pos |= inb(addr_6845 + 1);
  8004200afe:	48 b8 04 b0 63 04 80 	movabs $0x800463b004,%rax
  8004200b05:	00 00 00 
  8004200b08:	8b 00                	mov    (%rax),%eax
  8004200b0a:	83 c0 01             	add    $0x1,%eax
  8004200b0d:	89 45 cc             	mov    %eax,-0x34(%rbp)

static __inline uint8_t
inb(int port)
{
	uint8_t data;
	__asm __volatile("inb %w1,%0" : "=a" (data) : "d" (port));
  8004200b10:	8b 55 cc             	mov    -0x34(%rbp),%edx
  8004200b13:	89 55 c4             	mov    %edx,-0x3c(%rbp)
  8004200b16:	8b 55 c4             	mov    -0x3c(%rbp),%edx
  8004200b19:	ec                   	in     (%dx),%al
  8004200b1a:	89 c3                	mov    %eax,%ebx
  8004200b1c:	88 5d cb             	mov    %bl,-0x35(%rbp)
	return data;
  8004200b1f:	0f b6 45 cb          	movzbl -0x35(%rbp),%eax
  8004200b23:	0f b6 c0             	movzbl %al,%eax
  8004200b26:	09 45 e8             	or     %eax,-0x18(%rbp)

	crt_buf = (uint16_t*) cp;
  8004200b29:	48 b8 08 b0 63 04 80 	movabs $0x800463b008,%rax
  8004200b30:	00 00 00 
  8004200b33:	48 8b 55 f0          	mov    -0x10(%rbp),%rdx
  8004200b37:	48 89 10             	mov    %rdx,(%rax)
	crt_pos = pos;
  8004200b3a:	8b 45 e8             	mov    -0x18(%rbp),%eax
  8004200b3d:	89 c2                	mov    %eax,%edx
  8004200b3f:	48 b8 10 b0 63 04 80 	movabs $0x800463b010,%rax
  8004200b46:	00 00 00 
  8004200b49:	66 89 10             	mov    %dx,(%rax)
}
  8004200b4c:	48 83 c4 38          	add    $0x38,%rsp
  8004200b50:	5b                   	pop    %rbx
  8004200b51:	5d                   	pop    %rbp
  8004200b52:	c3                   	retq   

0000008004200b53 <cga_putc>:



static void
cga_putc(int c)
{
  8004200b53:	55                   	push   %rbp
  8004200b54:	48 89 e5             	mov    %rsp,%rbp
  8004200b57:	48 83 ec 40          	sub    $0x40,%rsp
  8004200b5b:	89 7d cc             	mov    %edi,-0x34(%rbp)
	// if no attribute given, then use black on white
	if (!(c & ~0xFF))
  8004200b5e:	8b 45 cc             	mov    -0x34(%rbp),%eax
  8004200b61:	b0 00                	mov    $0x0,%al
  8004200b63:	85 c0                	test   %eax,%eax
  8004200b65:	75 07                	jne    8004200b6e <cga_putc+0x1b>
		c |= 0x0700;
  8004200b67:	81 4d cc 00 07 00 00 	orl    $0x700,-0x34(%rbp)

	switch (c & 0xff) {
  8004200b6e:	8b 45 cc             	mov    -0x34(%rbp),%eax
  8004200b71:	25 ff 00 00 00       	and    $0xff,%eax
  8004200b76:	83 f8 09             	cmp    $0x9,%eax
  8004200b79:	0f 84 f9 00 00 00    	je     8004200c78 <cga_putc+0x125>
  8004200b7f:	83 f8 09             	cmp    $0x9,%eax
  8004200b82:	7f 0a                	jg     8004200b8e <cga_putc+0x3b>
  8004200b84:	83 f8 08             	cmp    $0x8,%eax
  8004200b87:	74 18                	je     8004200ba1 <cga_putc+0x4e>
  8004200b89:	e9 41 01 00 00       	jmpq   8004200ccf <cga_putc+0x17c>
  8004200b8e:	83 f8 0a             	cmp    $0xa,%eax
  8004200b91:	74 74                	je     8004200c07 <cga_putc+0xb4>
  8004200b93:	83 f8 0d             	cmp    $0xd,%eax
  8004200b96:	0f 84 88 00 00 00    	je     8004200c24 <cga_putc+0xd1>
  8004200b9c:	e9 2e 01 00 00       	jmpq   8004200ccf <cga_putc+0x17c>
	case '\b':
		if (crt_pos > 0) {
  8004200ba1:	48 b8 10 b0 63 04 80 	movabs $0x800463b010,%rax
  8004200ba8:	00 00 00 
  8004200bab:	0f b7 00             	movzwl (%rax),%eax
  8004200bae:	66 85 c0             	test   %ax,%ax
  8004200bb1:	0f 84 53 01 00 00    	je     8004200d0a <cga_putc+0x1b7>
			crt_pos--;
  8004200bb7:	48 b8 10 b0 63 04 80 	movabs $0x800463b010,%rax
  8004200bbe:	00 00 00 
  8004200bc1:	0f b7 00             	movzwl (%rax),%eax
  8004200bc4:	8d 50 ff             	lea    -0x1(%rax),%edx
  8004200bc7:	48 b8 10 b0 63 04 80 	movabs $0x800463b010,%rax
  8004200bce:	00 00 00 
  8004200bd1:	66 89 10             	mov    %dx,(%rax)
			crt_buf[crt_pos] = (c & ~0xff) | ' ';
  8004200bd4:	48 b8 08 b0 63 04 80 	movabs $0x800463b008,%rax
  8004200bdb:	00 00 00 
  8004200bde:	48 8b 10             	mov    (%rax),%rdx
  8004200be1:	48 b8 10 b0 63 04 80 	movabs $0x800463b010,%rax
  8004200be8:	00 00 00 
  8004200beb:	0f b7 00             	movzwl (%rax),%eax
  8004200bee:	0f b7 c0             	movzwl %ax,%eax
  8004200bf1:	48 01 c0             	add    %rax,%rax
  8004200bf4:	48 01 c2             	add    %rax,%rdx
  8004200bf7:	8b 45 cc             	mov    -0x34(%rbp),%eax
  8004200bfa:	b0 00                	mov    $0x0,%al
  8004200bfc:	83 c8 20             	or     $0x20,%eax
  8004200bff:	66 89 02             	mov    %ax,(%rdx)
		}
		break;
  8004200c02:	e9 03 01 00 00       	jmpq   8004200d0a <cga_putc+0x1b7>
	case '\n':
		crt_pos += CRT_COLS;
  8004200c07:	48 b8 10 b0 63 04 80 	movabs $0x800463b010,%rax
  8004200c0e:	00 00 00 
  8004200c11:	0f b7 00             	movzwl (%rax),%eax
  8004200c14:	8d 50 50             	lea    0x50(%rax),%edx
  8004200c17:	48 b8 10 b0 63 04 80 	movabs $0x800463b010,%rax
  8004200c1e:	00 00 00 
  8004200c21:	66 89 10             	mov    %dx,(%rax)
		/* fallthru */
	case '\r':
		crt_pos -= (crt_pos % CRT_COLS);
  8004200c24:	48 b8 10 b0 63 04 80 	movabs $0x800463b010,%rax
  8004200c2b:	00 00 00 
  8004200c2e:	0f b7 30             	movzwl (%rax),%esi
  8004200c31:	48 b8 10 b0 63 04 80 	movabs $0x800463b010,%rax
  8004200c38:	00 00 00 
  8004200c3b:	0f b7 08             	movzwl (%rax),%ecx
  8004200c3e:	0f b7 c1             	movzwl %cx,%eax
  8004200c41:	69 c0 cd cc 00 00    	imul   $0xcccd,%eax,%eax
  8004200c47:	c1 e8 10             	shr    $0x10,%eax
  8004200c4a:	89 c2                	mov    %eax,%edx
  8004200c4c:	66 c1 ea 06          	shr    $0x6,%dx
  8004200c50:	89 d0                	mov    %edx,%eax
  8004200c52:	c1 e0 02             	shl    $0x2,%eax
  8004200c55:	01 d0                	add    %edx,%eax
  8004200c57:	c1 e0 04             	shl    $0x4,%eax
  8004200c5a:	89 ca                	mov    %ecx,%edx
  8004200c5c:	66 29 c2             	sub    %ax,%dx
  8004200c5f:	89 f0                	mov    %esi,%eax
  8004200c61:	66 29 d0             	sub    %dx,%ax
  8004200c64:	89 c2                	mov    %eax,%edx
  8004200c66:	48 b8 10 b0 63 04 80 	movabs $0x800463b010,%rax
  8004200c6d:	00 00 00 
  8004200c70:	66 89 10             	mov    %dx,(%rax)
		break;
  8004200c73:	e9 93 00 00 00       	jmpq   8004200d0b <cga_putc+0x1b8>
	case '\t':
		cons_putc(' ');
  8004200c78:	bf 20 00 00 00       	mov    $0x20,%edi
  8004200c7d:	48 b8 11 12 20 04 80 	movabs $0x8004201211,%rax
  8004200c84:	00 00 00 
  8004200c87:	ff d0                	callq  *%rax
		cons_putc(' ');
  8004200c89:	bf 20 00 00 00       	mov    $0x20,%edi
  8004200c8e:	48 b8 11 12 20 04 80 	movabs $0x8004201211,%rax
  8004200c95:	00 00 00 
  8004200c98:	ff d0                	callq  *%rax
		cons_putc(' ');
  8004200c9a:	bf 20 00 00 00       	mov    $0x20,%edi
  8004200c9f:	48 b8 11 12 20 04 80 	movabs $0x8004201211,%rax
  8004200ca6:	00 00 00 
  8004200ca9:	ff d0                	callq  *%rax
		cons_putc(' ');
  8004200cab:	bf 20 00 00 00       	mov    $0x20,%edi
  8004200cb0:	48 b8 11 12 20 04 80 	movabs $0x8004201211,%rax
  8004200cb7:	00 00 00 
  8004200cba:	ff d0                	callq  *%rax
		cons_putc(' ');
  8004200cbc:	bf 20 00 00 00       	mov    $0x20,%edi
  8004200cc1:	48 b8 11 12 20 04 80 	movabs $0x8004201211,%rax
  8004200cc8:	00 00 00 
  8004200ccb:	ff d0                	callq  *%rax
		break;
  8004200ccd:	eb 3c                	jmp    8004200d0b <cga_putc+0x1b8>
	default:
		crt_buf[crt_pos++] = c;		/* write the character */
  8004200ccf:	48 b8 08 b0 63 04 80 	movabs $0x800463b008,%rax
  8004200cd6:	00 00 00 
  8004200cd9:	48 8b 10             	mov    (%rax),%rdx
  8004200cdc:	48 b8 10 b0 63 04 80 	movabs $0x800463b010,%rax
  8004200ce3:	00 00 00 
  8004200ce6:	0f b7 00             	movzwl (%rax),%eax
  8004200ce9:	0f b7 c8             	movzwl %ax,%ecx
  8004200cec:	48 01 c9             	add    %rcx,%rcx
  8004200cef:	48 01 d1             	add    %rdx,%rcx
  8004200cf2:	8b 55 cc             	mov    -0x34(%rbp),%edx
  8004200cf5:	66 89 11             	mov    %dx,(%rcx)
  8004200cf8:	8d 50 01             	lea    0x1(%rax),%edx
  8004200cfb:	48 b8 10 b0 63 04 80 	movabs $0x800463b010,%rax
  8004200d02:	00 00 00 
  8004200d05:	66 89 10             	mov    %dx,(%rax)
		break;
  8004200d08:	eb 01                	jmp    8004200d0b <cga_putc+0x1b8>
	case '\b':
		if (crt_pos > 0) {
			crt_pos--;
			crt_buf[crt_pos] = (c & ~0xff) | ' ';
		}
		break;
  8004200d0a:	90                   	nop
		crt_buf[crt_pos++] = c;		/* write the character */
		break;
	}

	// What is the purpose of this?
	if (crt_pos >= CRT_SIZE) {
  8004200d0b:	48 b8 10 b0 63 04 80 	movabs $0x800463b010,%rax
  8004200d12:	00 00 00 
  8004200d15:	0f b7 00             	movzwl (%rax),%eax
  8004200d18:	66 3d cf 07          	cmp    $0x7cf,%ax
  8004200d1c:	0f 86 89 00 00 00    	jbe    8004200dab <cga_putc+0x258>
		int i;

		memmove(crt_buf, crt_buf + CRT_COLS, (CRT_SIZE - CRT_COLS) * sizeof(uint16_t));
  8004200d22:	48 b8 08 b0 63 04 80 	movabs $0x800463b008,%rax
  8004200d29:	00 00 00 
  8004200d2c:	48 8b 00             	mov    (%rax),%rax
  8004200d2f:	48 8d 88 a0 00 00 00 	lea    0xa0(%rax),%rcx
  8004200d36:	48 b8 08 b0 63 04 80 	movabs $0x800463b008,%rax
  8004200d3d:	00 00 00 
  8004200d40:	48 8b 00             	mov    (%rax),%rax
  8004200d43:	ba 00 0f 00 00       	mov    $0xf00,%edx
  8004200d48:	48 89 ce             	mov    %rcx,%rsi
  8004200d4b:	48 89 c7             	mov    %rax,%rdi
  8004200d4e:	48 b8 de e6 20 04 80 	movabs $0x800420e6de,%rax
  8004200d55:	00 00 00 
  8004200d58:	ff d0                	callq  *%rax
		for (i = CRT_SIZE - CRT_COLS; i < CRT_SIZE; i++)
  8004200d5a:	c7 45 fc 80 07 00 00 	movl   $0x780,-0x4(%rbp)
  8004200d61:	eb 22                	jmp    8004200d85 <cga_putc+0x232>
			crt_buf[i] = 0x0700 | ' ';
  8004200d63:	48 b8 08 b0 63 04 80 	movabs $0x800463b008,%rax
  8004200d6a:	00 00 00 
  8004200d6d:	48 8b 00             	mov    (%rax),%rax
  8004200d70:	8b 55 fc             	mov    -0x4(%rbp),%edx
  8004200d73:	48 63 d2             	movslq %edx,%rdx
  8004200d76:	48 01 d2             	add    %rdx,%rdx
  8004200d79:	48 01 d0             	add    %rdx,%rax
  8004200d7c:	66 c7 00 20 07       	movw   $0x720,(%rax)
	// What is the purpose of this?
	if (crt_pos >= CRT_SIZE) {
		int i;

		memmove(crt_buf, crt_buf + CRT_COLS, (CRT_SIZE - CRT_COLS) * sizeof(uint16_t));
		for (i = CRT_SIZE - CRT_COLS; i < CRT_SIZE; i++)
  8004200d81:	83 45 fc 01          	addl   $0x1,-0x4(%rbp)
  8004200d85:	81 7d fc cf 07 00 00 	cmpl   $0x7cf,-0x4(%rbp)
  8004200d8c:	7e d5                	jle    8004200d63 <cga_putc+0x210>
			crt_buf[i] = 0x0700 | ' ';
		crt_pos -= CRT_COLS;
  8004200d8e:	48 b8 10 b0 63 04 80 	movabs $0x800463b010,%rax
  8004200d95:	00 00 00 
  8004200d98:	0f b7 00             	movzwl (%rax),%eax
  8004200d9b:	8d 50 b0             	lea    -0x50(%rax),%edx
  8004200d9e:	48 b8 10 b0 63 04 80 	movabs $0x800463b010,%rax
  8004200da5:	00 00 00 
  8004200da8:	66 89 10             	mov    %dx,(%rax)
	}

	/* move that little blinky thing */
	outb(addr_6845, 14);
  8004200dab:	48 b8 04 b0 63 04 80 	movabs $0x800463b004,%rax
  8004200db2:	00 00 00 
  8004200db5:	8b 00                	mov    (%rax),%eax
  8004200db7:	89 45 f8             	mov    %eax,-0x8(%rbp)
  8004200dba:	c6 45 f7 0e          	movb   $0xe,-0x9(%rbp)
}

static __inline void
outb(int port, uint8_t data)
{
	__asm __volatile("outb %0,%w1" : : "a" (data), "d" (port));
  8004200dbe:	0f b6 45 f7          	movzbl -0x9(%rbp),%eax
  8004200dc2:	8b 55 f8             	mov    -0x8(%rbp),%edx
  8004200dc5:	ee                   	out    %al,(%dx)
	outb(addr_6845 + 1, crt_pos >> 8);
  8004200dc6:	48 b8 10 b0 63 04 80 	movabs $0x800463b010,%rax
  8004200dcd:	00 00 00 
  8004200dd0:	0f b7 00             	movzwl (%rax),%eax
  8004200dd3:	66 c1 e8 08          	shr    $0x8,%ax
  8004200dd7:	0f b6 c0             	movzbl %al,%eax
  8004200dda:	48 ba 04 b0 63 04 80 	movabs $0x800463b004,%rdx
  8004200de1:	00 00 00 
  8004200de4:	8b 12                	mov    (%rdx),%edx
  8004200de6:	83 c2 01             	add    $0x1,%edx
  8004200de9:	89 55 f0             	mov    %edx,-0x10(%rbp)
  8004200dec:	88 45 ef             	mov    %al,-0x11(%rbp)
  8004200def:	0f b6 45 ef          	movzbl -0x11(%rbp),%eax
  8004200df3:	8b 55 f0             	mov    -0x10(%rbp),%edx
  8004200df6:	ee                   	out    %al,(%dx)
	outb(addr_6845, 15);
  8004200df7:	48 b8 04 b0 63 04 80 	movabs $0x800463b004,%rax
  8004200dfe:	00 00 00 
  8004200e01:	8b 00                	mov    (%rax),%eax
  8004200e03:	89 45 e8             	mov    %eax,-0x18(%rbp)
  8004200e06:	c6 45 e7 0f          	movb   $0xf,-0x19(%rbp)
  8004200e0a:	0f b6 45 e7          	movzbl -0x19(%rbp),%eax
  8004200e0e:	8b 55 e8             	mov    -0x18(%rbp),%edx
  8004200e11:	ee                   	out    %al,(%dx)
	outb(addr_6845 + 1, crt_pos);
  8004200e12:	48 b8 10 b0 63 04 80 	movabs $0x800463b010,%rax
  8004200e19:	00 00 00 
  8004200e1c:	0f b7 00             	movzwl (%rax),%eax
  8004200e1f:	0f b6 c0             	movzbl %al,%eax
  8004200e22:	48 ba 04 b0 63 04 80 	movabs $0x800463b004,%rdx
  8004200e29:	00 00 00 
  8004200e2c:	8b 12                	mov    (%rdx),%edx
  8004200e2e:	83 c2 01             	add    $0x1,%edx
  8004200e31:	89 55 e0             	mov    %edx,-0x20(%rbp)
  8004200e34:	88 45 df             	mov    %al,-0x21(%rbp)
  8004200e37:	0f b6 45 df          	movzbl -0x21(%rbp),%eax
  8004200e3b:	8b 55 e0             	mov    -0x20(%rbp),%edx
  8004200e3e:	ee                   	out    %al,(%dx)
}
  8004200e3f:	c9                   	leaveq 
  8004200e40:	c3                   	retq   

0000008004200e41 <kbd_proc_data>:
 * Get data from the keyboard.  If we finish a character, return it.  Else 0.
 * Return -1 if no data.
 */
static int
kbd_proc_data(void)
{
  8004200e41:	55                   	push   %rbp
  8004200e42:	48 89 e5             	mov    %rsp,%rbp
  8004200e45:	53                   	push   %rbx
  8004200e46:	48 83 ec 38          	sub    $0x38,%rsp
  8004200e4a:	c7 45 e4 64 00 00 00 	movl   $0x64,-0x1c(%rbp)

static __inline uint8_t
inb(int port)
{
	uint8_t data;
	__asm __volatile("inb %w1,%0" : "=a" (data) : "d" (port));
  8004200e51:	8b 55 e4             	mov    -0x1c(%rbp),%edx
  8004200e54:	89 55 cc             	mov    %edx,-0x34(%rbp)
  8004200e57:	8b 55 cc             	mov    -0x34(%rbp),%edx
  8004200e5a:	ec                   	in     (%dx),%al
  8004200e5b:	89 c3                	mov    %eax,%ebx
  8004200e5d:	88 5d e3             	mov    %bl,-0x1d(%rbp)
	return data;
  8004200e60:	0f b6 45 e3          	movzbl -0x1d(%rbp),%eax
	int c;
	uint8_t data;
	static uint32_t shift;

	if ((inb(KBSTATP) & KBS_DIB) == 0)
  8004200e64:	0f b6 c0             	movzbl %al,%eax
  8004200e67:	83 e0 01             	and    $0x1,%eax
  8004200e6a:	85 c0                	test   %eax,%eax
  8004200e6c:	75 0a                	jne    8004200e78 <kbd_proc_data+0x37>
		return -1;
  8004200e6e:	b8 ff ff ff ff       	mov    $0xffffffff,%eax
  8004200e73:	e9 02 02 00 00       	jmpq   800420107a <kbd_proc_data+0x239>
  8004200e78:	c7 45 dc 60 00 00 00 	movl   $0x60,-0x24(%rbp)

static __inline uint8_t
inb(int port)
{
	uint8_t data;
	__asm __volatile("inb %w1,%0" : "=a" (data) : "d" (port));
  8004200e7f:	8b 55 dc             	mov    -0x24(%rbp),%edx
  8004200e82:	89 55 cc             	mov    %edx,-0x34(%rbp)
  8004200e85:	8b 55 cc             	mov    -0x34(%rbp),%edx
  8004200e88:	ec                   	in     (%dx),%al
  8004200e89:	89 c3                	mov    %eax,%ebx
  8004200e8b:	88 5d db             	mov    %bl,-0x25(%rbp)
	return data;
  8004200e8e:	0f b6 45 db          	movzbl -0x25(%rbp),%eax

	data = inb(KBDATAP);
  8004200e92:	88 45 eb             	mov    %al,-0x15(%rbp)

	if (data == 0xE0) {
  8004200e95:	80 7d eb e0          	cmpb   $0xe0,-0x15(%rbp)
  8004200e99:	75 27                	jne    8004200ec2 <kbd_proc_data+0x81>
		// E0 escape character
		shift |= E0ESC;
  8004200e9b:	48 b8 28 b2 63 04 80 	movabs $0x800463b228,%rax
  8004200ea2:	00 00 00 
  8004200ea5:	8b 00                	mov    (%rax),%eax
  8004200ea7:	89 c2                	mov    %eax,%edx
  8004200ea9:	83 ca 40             	or     $0x40,%edx
  8004200eac:	48 b8 28 b2 63 04 80 	movabs $0x800463b228,%rax
  8004200eb3:	00 00 00 
  8004200eb6:	89 10                	mov    %edx,(%rax)
		return 0;
  8004200eb8:	b8 00 00 00 00       	mov    $0x0,%eax
  8004200ebd:	e9 b8 01 00 00       	jmpq   800420107a <kbd_proc_data+0x239>
	} else if (data & 0x80) {
  8004200ec2:	0f b6 45 eb          	movzbl -0x15(%rbp),%eax
  8004200ec6:	84 c0                	test   %al,%al
  8004200ec8:	79 65                	jns    8004200f2f <kbd_proc_data+0xee>
		// Key released
		data = (shift & E0ESC ? data : data & 0x7F);
  8004200eca:	48 b8 28 b2 63 04 80 	movabs $0x800463b228,%rax
  8004200ed1:	00 00 00 
  8004200ed4:	8b 00                	mov    (%rax),%eax
  8004200ed6:	83 e0 40             	and    $0x40,%eax
  8004200ed9:	85 c0                	test   %eax,%eax
  8004200edb:	75 09                	jne    8004200ee6 <kbd_proc_data+0xa5>
  8004200edd:	0f b6 45 eb          	movzbl -0x15(%rbp),%eax
  8004200ee1:	83 e0 7f             	and    $0x7f,%eax
  8004200ee4:	eb 04                	jmp    8004200eea <kbd_proc_data+0xa9>
  8004200ee6:	0f b6 45 eb          	movzbl -0x15(%rbp),%eax
  8004200eea:	88 45 eb             	mov    %al,-0x15(%rbp)
		shift &= ~(shiftcode[data] | E0ESC);
  8004200eed:	0f b6 45 eb          	movzbl -0x15(%rbp),%eax
  8004200ef1:	48 ba 60 a0 22 04 80 	movabs $0x800422a060,%rdx
  8004200ef8:	00 00 00 
  8004200efb:	48 98                	cltq   
  8004200efd:	0f b6 04 02          	movzbl (%rdx,%rax,1),%eax
  8004200f01:	83 c8 40             	or     $0x40,%eax
  8004200f04:	0f b6 c0             	movzbl %al,%eax
  8004200f07:	f7 d0                	not    %eax
  8004200f09:	89 c2                	mov    %eax,%edx
  8004200f0b:	48 b8 28 b2 63 04 80 	movabs $0x800463b228,%rax
  8004200f12:	00 00 00 
  8004200f15:	8b 00                	mov    (%rax),%eax
  8004200f17:	21 c2                	and    %eax,%edx
  8004200f19:	48 b8 28 b2 63 04 80 	movabs $0x800463b228,%rax
  8004200f20:	00 00 00 
  8004200f23:	89 10                	mov    %edx,(%rax)
		return 0;
  8004200f25:	b8 00 00 00 00       	mov    $0x0,%eax
  8004200f2a:	e9 4b 01 00 00       	jmpq   800420107a <kbd_proc_data+0x239>
	} else if (shift & E0ESC) {
  8004200f2f:	48 b8 28 b2 63 04 80 	movabs $0x800463b228,%rax
  8004200f36:	00 00 00 
  8004200f39:	8b 00                	mov    (%rax),%eax
  8004200f3b:	83 e0 40             	and    $0x40,%eax
  8004200f3e:	85 c0                	test   %eax,%eax
  8004200f40:	74 21                	je     8004200f63 <kbd_proc_data+0x122>
		// Last character was an E0 escape; or with 0x80
		data |= 0x80;
  8004200f42:	80 4d eb 80          	orb    $0x80,-0x15(%rbp)
		shift &= ~E0ESC;
  8004200f46:	48 b8 28 b2 63 04 80 	movabs $0x800463b228,%rax
  8004200f4d:	00 00 00 
  8004200f50:	8b 00                	mov    (%rax),%eax
  8004200f52:	89 c2                	mov    %eax,%edx
  8004200f54:	83 e2 bf             	and    $0xffffffbf,%edx
  8004200f57:	48 b8 28 b2 63 04 80 	movabs $0x800463b228,%rax
  8004200f5e:	00 00 00 
  8004200f61:	89 10                	mov    %edx,(%rax)
	}

	shift |= shiftcode[data];
  8004200f63:	0f b6 45 eb          	movzbl -0x15(%rbp),%eax
  8004200f67:	48 ba 60 a0 22 04 80 	movabs $0x800422a060,%rdx
  8004200f6e:	00 00 00 
  8004200f71:	48 98                	cltq   
  8004200f73:	0f b6 04 02          	movzbl (%rdx,%rax,1),%eax
  8004200f77:	0f b6 d0             	movzbl %al,%edx
  8004200f7a:	48 b8 28 b2 63 04 80 	movabs $0x800463b228,%rax
  8004200f81:	00 00 00 
  8004200f84:	8b 00                	mov    (%rax),%eax
  8004200f86:	09 c2                	or     %eax,%edx
  8004200f88:	48 b8 28 b2 63 04 80 	movabs $0x800463b228,%rax
  8004200f8f:	00 00 00 
  8004200f92:	89 10                	mov    %edx,(%rax)
	shift ^= togglecode[data];
  8004200f94:	0f b6 45 eb          	movzbl -0x15(%rbp),%eax
  8004200f98:	48 ba 60 a1 22 04 80 	movabs $0x800422a160,%rdx
  8004200f9f:	00 00 00 
  8004200fa2:	48 98                	cltq   
  8004200fa4:	0f b6 04 02          	movzbl (%rdx,%rax,1),%eax
  8004200fa8:	0f b6 d0             	movzbl %al,%edx
  8004200fab:	48 b8 28 b2 63 04 80 	movabs $0x800463b228,%rax
  8004200fb2:	00 00 00 
  8004200fb5:	8b 00                	mov    (%rax),%eax
  8004200fb7:	31 c2                	xor    %eax,%edx
  8004200fb9:	48 b8 28 b2 63 04 80 	movabs $0x800463b228,%rax
  8004200fc0:	00 00 00 
  8004200fc3:	89 10                	mov    %edx,(%rax)

	c = charcode[shift & (CTL | SHIFT)][data];
  8004200fc5:	48 b8 28 b2 63 04 80 	movabs $0x800463b228,%rax
  8004200fcc:	00 00 00 
  8004200fcf:	8b 00                	mov    (%rax),%eax
  8004200fd1:	89 c2                	mov    %eax,%edx
  8004200fd3:	83 e2 03             	and    $0x3,%edx
  8004200fd6:	48 b8 60 a5 22 04 80 	movabs $0x800422a560,%rax
  8004200fdd:	00 00 00 
  8004200fe0:	89 d2                	mov    %edx,%edx
  8004200fe2:	48 8b 14 d0          	mov    (%rax,%rdx,8),%rdx
  8004200fe6:	0f b6 45 eb          	movzbl -0x15(%rbp),%eax
  8004200fea:	48 01 d0             	add    %rdx,%rax
  8004200fed:	0f b6 00             	movzbl (%rax),%eax
  8004200ff0:	0f b6 c0             	movzbl %al,%eax
  8004200ff3:	89 45 ec             	mov    %eax,-0x14(%rbp)
	if (shift & CAPSLOCK) {
  8004200ff6:	48 b8 28 b2 63 04 80 	movabs $0x800463b228,%rax
  8004200ffd:	00 00 00 
  8004201000:	8b 00                	mov    (%rax),%eax
  8004201002:	83 e0 08             	and    $0x8,%eax
  8004201005:	85 c0                	test   %eax,%eax
  8004201007:	74 22                	je     800420102b <kbd_proc_data+0x1ea>
		if ('a' <= c && c <= 'z')
  8004201009:	83 7d ec 60          	cmpl   $0x60,-0x14(%rbp)
  800420100d:	7e 0c                	jle    800420101b <kbd_proc_data+0x1da>
  800420100f:	83 7d ec 7a          	cmpl   $0x7a,-0x14(%rbp)
  8004201013:	7f 06                	jg     800420101b <kbd_proc_data+0x1da>
			c += 'A' - 'a';
  8004201015:	83 6d ec 20          	subl   $0x20,-0x14(%rbp)
  8004201019:	eb 10                	jmp    800420102b <kbd_proc_data+0x1ea>
		else if ('A' <= c && c <= 'Z')
  800420101b:	83 7d ec 40          	cmpl   $0x40,-0x14(%rbp)
  800420101f:	7e 0a                	jle    800420102b <kbd_proc_data+0x1ea>
  8004201021:	83 7d ec 5a          	cmpl   $0x5a,-0x14(%rbp)
  8004201025:	7f 04                	jg     800420102b <kbd_proc_data+0x1ea>
			c += 'a' - 'A';
  8004201027:	83 45 ec 20          	addl   $0x20,-0x14(%rbp)
	}

	// Process special keys
	// Ctrl-Alt-Del: reboot
	if (!(~shift & (CTL | ALT)) && c == KEY_DEL) {
  800420102b:	48 b8 28 b2 63 04 80 	movabs $0x800463b228,%rax
  8004201032:	00 00 00 
  8004201035:	8b 00                	mov    (%rax),%eax
  8004201037:	f7 d0                	not    %eax
  8004201039:	83 e0 06             	and    $0x6,%eax
  800420103c:	85 c0                	test   %eax,%eax
  800420103e:	75 37                	jne    8004201077 <kbd_proc_data+0x236>
  8004201040:	81 7d ec e9 00 00 00 	cmpl   $0xe9,-0x14(%rbp)
  8004201047:	75 2e                	jne    8004201077 <kbd_proc_data+0x236>
		cprintf("Rebooting!\n");
  8004201049:	48 bf 6e 70 21 04 80 	movabs $0x800421706e,%rdi
  8004201050:	00 00 00 
  8004201053:	b8 00 00 00 00       	mov    $0x0,%eax
  8004201058:	48 ba f2 89 20 04 80 	movabs $0x80042089f2,%rdx
  800420105f:	00 00 00 
  8004201062:	ff d2                	callq  *%rdx
  8004201064:	c7 45 d4 92 00 00 00 	movl   $0x92,-0x2c(%rbp)
  800420106b:	c6 45 d3 03          	movb   $0x3,-0x2d(%rbp)
}

static __inline void
outb(int port, uint8_t data)
{
	__asm __volatile("outb %0,%w1" : : "a" (data), "d" (port));
  800420106f:	0f b6 45 d3          	movzbl -0x2d(%rbp),%eax
  8004201073:	8b 55 d4             	mov    -0x2c(%rbp),%edx
  8004201076:	ee                   	out    %al,(%dx)
		outb(0x92, 0x3); // courtesy of Chris Frost
	}

	return c;
  8004201077:	8b 45 ec             	mov    -0x14(%rbp),%eax
}
  800420107a:	48 83 c4 38          	add    $0x38,%rsp
  800420107e:	5b                   	pop    %rbx
  800420107f:	5d                   	pop    %rbp
  8004201080:	c3                   	retq   

0000008004201081 <kbd_intr>:

void
kbd_intr(void)
{
  8004201081:	55                   	push   %rbp
  8004201082:	48 89 e5             	mov    %rsp,%rbp
	cons_intr(kbd_proc_data);
  8004201085:	48 bf 41 0e 20 04 80 	movabs $0x8004200e41,%rdi
  800420108c:	00 00 00 
  800420108f:	48 b8 d2 10 20 04 80 	movabs $0x80042010d2,%rax
  8004201096:	00 00 00 
  8004201099:	ff d0                	callq  *%rax
}
  800420109b:	5d                   	pop    %rbp
  800420109c:	c3                   	retq   

000000800420109d <kbd_init>:

static void
kbd_init(void)
{
  800420109d:	55                   	push   %rbp
  800420109e:	48 89 e5             	mov    %rsp,%rbp
	// Drain the kbd buffer so that Bochs generates interrupts.
	kbd_intr();
  80042010a1:	48 b8 81 10 20 04 80 	movabs $0x8004201081,%rax
  80042010a8:	00 00 00 
  80042010ab:	ff d0                	callq  *%rax
	irq_setmask_8259A(irq_mask_8259A & ~(1<<1));
  80042010ad:	48 b8 94 a6 22 04 80 	movabs $0x800422a694,%rax
  80042010b4:	00 00 00 
  80042010b7:	0f b7 00             	movzwl (%rax),%eax
  80042010ba:	0f b7 c0             	movzwl %ax,%eax
  80042010bd:	25 fd ff 00 00       	and    $0xfffd,%eax
  80042010c2:	89 c7                	mov    %eax,%edi
  80042010c4:	48 b8 3e 88 20 04 80 	movabs $0x800420883e,%rax
  80042010cb:	00 00 00 
  80042010ce:	ff d0                	callq  *%rax
}
  80042010d0:	5d                   	pop    %rbp
  80042010d1:	c3                   	retq   

00000080042010d2 <cons_intr>:

// called by device interrupt routines to feed input characters
// into the circular console input buffer.
static void
cons_intr(int (*proc)(void))
{
  80042010d2:	55                   	push   %rbp
  80042010d3:	48 89 e5             	mov    %rsp,%rbp
  80042010d6:	48 83 ec 20          	sub    $0x20,%rsp
  80042010da:	48 89 7d e8          	mov    %rdi,-0x18(%rbp)
	int c;

	while ((c = (*proc)()) != -1) {
  80042010de:	eb 6c                	jmp    800420114c <cons_intr+0x7a>
		if (c == 0)
  80042010e0:	83 7d fc 00          	cmpl   $0x0,-0x4(%rbp)
  80042010e4:	74 65                	je     800420114b <cons_intr+0x79>
			continue;
		cons.buf[cons.wpos++] = c;
  80042010e6:	48 b8 20 b0 63 04 80 	movabs $0x800463b020,%rax
  80042010ed:	00 00 00 
  80042010f0:	8b 80 04 02 00 00    	mov    0x204(%rax),%eax
  80042010f6:	8b 55 fc             	mov    -0x4(%rbp),%edx
  80042010f9:	89 d6                	mov    %edx,%esi
  80042010fb:	48 b9 20 b0 63 04 80 	movabs $0x800463b020,%rcx
  8004201102:	00 00 00 
  8004201105:	89 c2                	mov    %eax,%edx
  8004201107:	40 88 34 11          	mov    %sil,(%rcx,%rdx,1)
  800420110b:	8d 50 01             	lea    0x1(%rax),%edx
  800420110e:	48 b8 20 b0 63 04 80 	movabs $0x800463b020,%rax
  8004201115:	00 00 00 
  8004201118:	89 90 04 02 00 00    	mov    %edx,0x204(%rax)
		if (cons.wpos == CONSBUFSIZE)
  800420111e:	48 b8 20 b0 63 04 80 	movabs $0x800463b020,%rax
  8004201125:	00 00 00 
  8004201128:	8b 80 04 02 00 00    	mov    0x204(%rax),%eax
  800420112e:	3d 00 02 00 00       	cmp    $0x200,%eax
  8004201133:	75 17                	jne    800420114c <cons_intr+0x7a>
			cons.wpos = 0;
  8004201135:	48 b8 20 b0 63 04 80 	movabs $0x800463b020,%rax
  800420113c:	00 00 00 
  800420113f:	c7 80 04 02 00 00 00 	movl   $0x0,0x204(%rax)
  8004201146:	00 00 00 
  8004201149:	eb 01                	jmp    800420114c <cons_intr+0x7a>
{
	int c;

	while ((c = (*proc)()) != -1) {
		if (c == 0)
			continue;
  800420114b:	90                   	nop
static void
cons_intr(int (*proc)(void))
{
	int c;

	while ((c = (*proc)()) != -1) {
  800420114c:	48 8b 45 e8          	mov    -0x18(%rbp),%rax
  8004201150:	ff d0                	callq  *%rax
  8004201152:	89 45 fc             	mov    %eax,-0x4(%rbp)
  8004201155:	83 7d fc ff          	cmpl   $0xffffffff,-0x4(%rbp)
  8004201159:	75 85                	jne    80042010e0 <cons_intr+0xe>
			continue;
		cons.buf[cons.wpos++] = c;
		if (cons.wpos == CONSBUFSIZE)
			cons.wpos = 0;
	}
}
  800420115b:	c9                   	leaveq 
  800420115c:	c3                   	retq   

000000800420115d <cons_getc>:

// return the next input character from the console, or 0 if none waiting
int
cons_getc(void)
{
  800420115d:	55                   	push   %rbp
  800420115e:	48 89 e5             	mov    %rsp,%rbp
  8004201161:	48 83 ec 10          	sub    $0x10,%rsp
	int c;

	// poll for any pending input characters,
	// so that this function works even when interrupts are disabled
	// (e.g., when called from the kernel monitor).
	serial_intr();
  8004201165:	48 b8 d8 07 20 04 80 	movabs $0x80042007d8,%rax
  800420116c:	00 00 00 
  800420116f:	ff d0                	callq  *%rax
	kbd_intr();
  8004201171:	48 b8 81 10 20 04 80 	movabs $0x8004201081,%rax
  8004201178:	00 00 00 
  800420117b:	ff d0                	callq  *%rax

	// grab the next character from the input buffer.
	if (cons.rpos != cons.wpos) {
  800420117d:	48 b8 20 b0 63 04 80 	movabs $0x800463b020,%rax
  8004201184:	00 00 00 
  8004201187:	8b 90 00 02 00 00    	mov    0x200(%rax),%edx
  800420118d:	48 b8 20 b0 63 04 80 	movabs $0x800463b020,%rax
  8004201194:	00 00 00 
  8004201197:	8b 80 04 02 00 00    	mov    0x204(%rax),%eax
  800420119d:	39 c2                	cmp    %eax,%edx
  800420119f:	74 69                	je     800420120a <cons_getc+0xad>
		c = cons.buf[cons.rpos++];
  80042011a1:	48 b8 20 b0 63 04 80 	movabs $0x800463b020,%rax
  80042011a8:	00 00 00 
  80042011ab:	8b 80 00 02 00 00    	mov    0x200(%rax),%eax
  80042011b1:	48 b9 20 b0 63 04 80 	movabs $0x800463b020,%rcx
  80042011b8:	00 00 00 
  80042011bb:	89 c2                	mov    %eax,%edx
  80042011bd:	0f b6 14 11          	movzbl (%rcx,%rdx,1),%edx
  80042011c1:	0f b6 d2             	movzbl %dl,%edx
  80042011c4:	89 55 fc             	mov    %edx,-0x4(%rbp)
  80042011c7:	8d 50 01             	lea    0x1(%rax),%edx
  80042011ca:	48 b8 20 b0 63 04 80 	movabs $0x800463b020,%rax
  80042011d1:	00 00 00 
  80042011d4:	89 90 00 02 00 00    	mov    %edx,0x200(%rax)
		if (cons.rpos == CONSBUFSIZE)
  80042011da:	48 b8 20 b0 63 04 80 	movabs $0x800463b020,%rax
  80042011e1:	00 00 00 
  80042011e4:	8b 80 00 02 00 00    	mov    0x200(%rax),%eax
  80042011ea:	3d 00 02 00 00       	cmp    $0x200,%eax
  80042011ef:	75 14                	jne    8004201205 <cons_getc+0xa8>
			cons.rpos = 0;
  80042011f1:	48 b8 20 b0 63 04 80 	movabs $0x800463b020,%rax
  80042011f8:	00 00 00 
  80042011fb:	c7 80 00 02 00 00 00 	movl   $0x0,0x200(%rax)
  8004201202:	00 00 00 
		return c;
  8004201205:	8b 45 fc             	mov    -0x4(%rbp),%eax
  8004201208:	eb 05                	jmp    800420120f <cons_getc+0xb2>
	}
	return 0;
  800420120a:	b8 00 00 00 00       	mov    $0x0,%eax
}
  800420120f:	c9                   	leaveq 
  8004201210:	c3                   	retq   

0000008004201211 <cons_putc>:

// output a character to the console
static void
cons_putc(int c)
{
  8004201211:	55                   	push   %rbp
  8004201212:	48 89 e5             	mov    %rsp,%rbp
  8004201215:	48 83 ec 10          	sub    $0x10,%rsp
  8004201219:	89 7d fc             	mov    %edi,-0x4(%rbp)
	serial_putc(c);
  800420121c:	8b 45 fc             	mov    -0x4(%rbp),%eax
  800420121f:	89 c7                	mov    %eax,%edi
  8004201221:	48 b8 05 08 20 04 80 	movabs $0x8004200805,%rax
  8004201228:	00 00 00 
  800420122b:	ff d0                	callq  *%rax
	lpt_putc(c);
  800420122d:	8b 45 fc             	mov    -0x4(%rbp),%eax
  8004201230:	89 c7                	mov    %eax,%edi
  8004201232:	48 b8 96 09 20 04 80 	movabs $0x8004200996,%rax
  8004201239:	00 00 00 
  800420123c:	ff d0                	callq  *%rax
	cga_putc(c);
  800420123e:	8b 45 fc             	mov    -0x4(%rbp),%eax
  8004201241:	89 c7                	mov    %eax,%edi
  8004201243:	48 b8 53 0b 20 04 80 	movabs $0x8004200b53,%rax
  800420124a:	00 00 00 
  800420124d:	ff d0                	callq  *%rax
}
  800420124f:	c9                   	leaveq 
  8004201250:	c3                   	retq   

0000008004201251 <cons_init>:

// initialize the console devices
void
cons_init(void)
{
  8004201251:	55                   	push   %rbp
  8004201252:	48 89 e5             	mov    %rsp,%rbp
	cga_init();
  8004201255:	48 b8 27 0a 20 04 80 	movabs $0x8004200a27,%rax
  800420125c:	00 00 00 
  800420125f:	ff d0                	callq  *%rax
	kbd_init();
  8004201261:	48 b8 9d 10 20 04 80 	movabs $0x800420109d,%rax
  8004201268:	00 00 00 
  800420126b:	ff d0                	callq  *%rax
	serial_init();
  800420126d:	48 b8 76 08 20 04 80 	movabs $0x8004200876,%rax
  8004201274:	00 00 00 
  8004201277:	ff d0                	callq  *%rax

	if (!serial_exists)
  8004201279:	48 b8 00 b0 63 04 80 	movabs $0x800463b000,%rax
  8004201280:	00 00 00 
  8004201283:	0f b6 00             	movzbl (%rax),%eax
  8004201286:	83 f0 01             	xor    $0x1,%eax
  8004201289:	84 c0                	test   %al,%al
  800420128b:	74 1b                	je     80042012a8 <cons_init+0x57>
		cprintf("Serial port does not exist!\n");
  800420128d:	48 bf 7a 70 21 04 80 	movabs $0x800421707a,%rdi
  8004201294:	00 00 00 
  8004201297:	b8 00 00 00 00       	mov    $0x0,%eax
  800420129c:	48 ba f2 89 20 04 80 	movabs $0x80042089f2,%rdx
  80042012a3:	00 00 00 
  80042012a6:	ff d2                	callq  *%rdx
}
  80042012a8:	5d                   	pop    %rbp
  80042012a9:	c3                   	retq   

00000080042012aa <cputchar>:

// `High'-level console I/O.  Used by readline and cprintf.

void
cputchar(int c)
{
  80042012aa:	55                   	push   %rbp
  80042012ab:	48 89 e5             	mov    %rsp,%rbp
  80042012ae:	48 83 ec 10          	sub    $0x10,%rsp
  80042012b2:	89 7d fc             	mov    %edi,-0x4(%rbp)
	cons_putc(c);
  80042012b5:	8b 45 fc             	mov    -0x4(%rbp),%eax
  80042012b8:	89 c7                	mov    %eax,%edi
  80042012ba:	48 b8 11 12 20 04 80 	movabs $0x8004201211,%rax
  80042012c1:	00 00 00 
  80042012c4:	ff d0                	callq  *%rax
}
  80042012c6:	c9                   	leaveq 
  80042012c7:	c3                   	retq   

00000080042012c8 <getchar>:

int
getchar(void)
{
  80042012c8:	55                   	push   %rbp
  80042012c9:	48 89 e5             	mov    %rsp,%rbp
  80042012cc:	48 83 ec 10          	sub    $0x10,%rsp
	int c;

	while ((c = cons_getc()) == 0)
  80042012d0:	48 b8 5d 11 20 04 80 	movabs $0x800420115d,%rax
  80042012d7:	00 00 00 
  80042012da:	ff d0                	callq  *%rax
  80042012dc:	89 45 fc             	mov    %eax,-0x4(%rbp)
  80042012df:	83 7d fc 00          	cmpl   $0x0,-0x4(%rbp)
  80042012e3:	74 eb                	je     80042012d0 <getchar+0x8>
		/* do nothing */;
	return c;
  80042012e5:	8b 45 fc             	mov    -0x4(%rbp),%eax
}
  80042012e8:	c9                   	leaveq 
  80042012e9:	c3                   	retq   

00000080042012ea <iscons>:

int
iscons(int fdnum)
{
  80042012ea:	55                   	push   %rbp
  80042012eb:	48 89 e5             	mov    %rsp,%rbp
  80042012ee:	48 83 ec 08          	sub    $0x8,%rsp
  80042012f2:	89 7d fc             	mov    %edi,-0x4(%rbp)
	// used by readline
	return 1;
  80042012f5:	b8 01 00 00 00       	mov    $0x1,%eax
}
  80042012fa:	c9                   	leaveq 
  80042012fb:	c3                   	retq   

00000080042012fc <mon_help>:

/***** Implementations of basic kernel monitor commands *****/

int
mon_help(int argc, char **argv, struct Trapframe *tf)
{
  80042012fc:	55                   	push   %rbp
  80042012fd:	48 89 e5             	mov    %rsp,%rbp
  8004201300:	48 83 ec 30          	sub    $0x30,%rsp
  8004201304:	89 7d ec             	mov    %edi,-0x14(%rbp)
  8004201307:	48 89 75 e0          	mov    %rsi,-0x20(%rbp)
  800420130b:	48 89 55 d8          	mov    %rdx,-0x28(%rbp)
	int i;

	for (i = 0; i < NCOMMANDS; i++)
  800420130f:	c7 45 fc 00 00 00 00 	movl   $0x0,-0x4(%rbp)
  8004201316:	eb 6c                	jmp    8004201384 <mon_help+0x88>
		cprintf("%s - %s\n", commands[i].name, commands[i].desc);
  8004201318:	48 b9 80 a5 22 04 80 	movabs $0x800422a580,%rcx
  800420131f:	00 00 00 
  8004201322:	8b 45 fc             	mov    -0x4(%rbp),%eax
  8004201325:	48 63 d0             	movslq %eax,%rdx
  8004201328:	48 89 d0             	mov    %rdx,%rax
  800420132b:	48 01 c0             	add    %rax,%rax
  800420132e:	48 01 d0             	add    %rdx,%rax
  8004201331:	48 c1 e0 03          	shl    $0x3,%rax
  8004201335:	48 01 c8             	add    %rcx,%rax
  8004201338:	48 8b 48 08          	mov    0x8(%rax),%rcx
  800420133c:	48 be 80 a5 22 04 80 	movabs $0x800422a580,%rsi
  8004201343:	00 00 00 
  8004201346:	8b 45 fc             	mov    -0x4(%rbp),%eax
  8004201349:	48 63 d0             	movslq %eax,%rdx
  800420134c:	48 89 d0             	mov    %rdx,%rax
  800420134f:	48 01 c0             	add    %rax,%rax
  8004201352:	48 01 d0             	add    %rdx,%rax
  8004201355:	48 c1 e0 03          	shl    $0x3,%rax
  8004201359:	48 01 f0             	add    %rsi,%rax
  800420135c:	48 8b 00             	mov    (%rax),%rax
  800420135f:	48 89 ca             	mov    %rcx,%rdx
  8004201362:	48 89 c6             	mov    %rax,%rsi
  8004201365:	48 bf 28 71 21 04 80 	movabs $0x8004217128,%rdi
  800420136c:	00 00 00 
  800420136f:	b8 00 00 00 00       	mov    $0x0,%eax
  8004201374:	48 b9 f2 89 20 04 80 	movabs $0x80042089f2,%rcx
  800420137b:	00 00 00 
  800420137e:	ff d1                	callq  *%rcx
int
mon_help(int argc, char **argv, struct Trapframe *tf)
{
	int i;

	for (i = 0; i < NCOMMANDS; i++)
  8004201380:	83 45 fc 01          	addl   $0x1,-0x4(%rbp)
  8004201384:	8b 45 fc             	mov    -0x4(%rbp),%eax
  8004201387:	83 f8 02             	cmp    $0x2,%eax
  800420138a:	76 8c                	jbe    8004201318 <mon_help+0x1c>
		cprintf("%s - %s\n", commands[i].name, commands[i].desc);
	return 0;
  800420138c:	b8 00 00 00 00       	mov    $0x0,%eax
}
  8004201391:	c9                   	leaveq 
  8004201392:	c3                   	retq   

0000008004201393 <mon_kerninfo>:

int
mon_kerninfo(int argc, char **argv, struct Trapframe *tf)
{
  8004201393:	55                   	push   %rbp
  8004201394:	48 89 e5             	mov    %rsp,%rbp
  8004201397:	48 83 ec 30          	sub    $0x30,%rsp
  800420139b:	89 7d ec             	mov    %edi,-0x14(%rbp)
  800420139e:	48 89 75 e0          	mov    %rsi,-0x20(%rbp)
  80042013a2:	48 89 55 d8          	mov    %rdx,-0x28(%rbp)
	extern char _start[], entry[], etext[], edata[], end[];

	cprintf("Special kernel symbols:\n");
  80042013a6:	48 bf 31 71 21 04 80 	movabs $0x8004217131,%rdi
  80042013ad:	00 00 00 
  80042013b0:	b8 00 00 00 00       	mov    $0x0,%eax
  80042013b5:	48 ba f2 89 20 04 80 	movabs $0x80042089f2,%rdx
  80042013bc:	00 00 00 
  80042013bf:	ff d2                	callq  *%rdx
	cprintf("  _start                  %08x (phys)\n", _start);
  80042013c1:	48 be 0c 00 20 00 00 	movabs $0x20000c,%rsi
  80042013c8:	00 00 00 
  80042013cb:	48 bf 50 71 21 04 80 	movabs $0x8004217150,%rdi
  80042013d2:	00 00 00 
  80042013d5:	b8 00 00 00 00       	mov    $0x0,%eax
  80042013da:	48 ba f2 89 20 04 80 	movabs $0x80042089f2,%rdx
  80042013e1:	00 00 00 
  80042013e4:	ff d2                	callq  *%rdx
	cprintf("  entry  %08x (virt)  %08x (phys)\n", entry, entry - KERNBASE);
  80042013e6:	48 ba 0c 00 20 00 00 	movabs $0x20000c,%rdx
  80042013ed:	00 00 00 
  80042013f0:	48 be 0c 00 20 04 80 	movabs $0x800420000c,%rsi
  80042013f7:	00 00 00 
  80042013fa:	48 bf 78 71 21 04 80 	movabs $0x8004217178,%rdi
  8004201401:	00 00 00 
  8004201404:	b8 00 00 00 00       	mov    $0x0,%eax
  8004201409:	48 b9 f2 89 20 04 80 	movabs $0x80042089f2,%rcx
  8004201410:	00 00 00 
  8004201413:	ff d1                	callq  *%rcx
	cprintf("  etext  %08x (virt)  %08x (phys)\n", etext, etext - KERNBASE);
  8004201415:	48 ba 9b 6f 21 00 00 	movabs $0x216f9b,%rdx
  800420141c:	00 00 00 
  800420141f:	48 be 9b 6f 21 04 80 	movabs $0x8004216f9b,%rsi
  8004201426:	00 00 00 
  8004201429:	48 bf a0 71 21 04 80 	movabs $0x80042171a0,%rdi
  8004201430:	00 00 00 
  8004201433:	b8 00 00 00 00       	mov    $0x0,%eax
  8004201438:	48 b9 f2 89 20 04 80 	movabs $0x80042089f2,%rcx
  800420143f:	00 00 00 
  8004201442:	ff d1                	callq  *%rcx
	cprintf("  edata  %08x (virt)  %08x (phys)\n", edata, edata - KERNBASE);
  8004201444:	48 ba 07 a6 63 00 00 	movabs $0x63a607,%rdx
  800420144b:	00 00 00 
  800420144e:	48 be 07 a6 63 04 80 	movabs $0x800463a607,%rsi
  8004201455:	00 00 00 
  8004201458:	48 bf c8 71 21 04 80 	movabs $0x80042171c8,%rdi
  800420145f:	00 00 00 
  8004201462:	b8 00 00 00 00       	mov    $0x0,%eax
  8004201467:	48 b9 f2 89 20 04 80 	movabs $0x80042089f2,%rcx
  800420146e:	00 00 00 
  8004201471:	ff d1                	callq  *%rcx
	cprintf("  end    %08x (virt)  %08x (phys)\n", end, end - KERNBASE);
  8004201473:	48 ba 18 f0 6f 00 00 	movabs $0x6ff018,%rdx
  800420147a:	00 00 00 
  800420147d:	48 be 18 f0 6f 04 80 	movabs $0x80046ff018,%rsi
  8004201484:	00 00 00 
  8004201487:	48 bf f0 71 21 04 80 	movabs $0x80042171f0,%rdi
  800420148e:	00 00 00 
  8004201491:	b8 00 00 00 00       	mov    $0x0,%eax
  8004201496:	48 b9 f2 89 20 04 80 	movabs $0x80042089f2,%rcx
  800420149d:	00 00 00 
  80042014a0:	ff d1                	callq  *%rcx
	cprintf("Kernel executable memory footprint: %dKB\n",
		ROUNDUP(end - entry, 1024) / 1024);
  80042014a2:	48 c7 45 f8 00 04 00 	movq   $0x400,-0x8(%rbp)
  80042014a9:	00 
  80042014aa:	48 b8 0c 00 20 04 80 	movabs $0x800420000c,%rax
  80042014b1:	00 00 00 
  80042014b4:	48 8b 55 f8          	mov    -0x8(%rbp),%rdx
  80042014b8:	48 29 c2             	sub    %rax,%rdx
  80042014bb:	48 b8 18 f0 6f 04 80 	movabs $0x80046ff018,%rax
  80042014c2:	00 00 00 
  80042014c5:	48 83 e8 01          	sub    $0x1,%rax
  80042014c9:	48 01 d0             	add    %rdx,%rax
  80042014cc:	48 89 45 f0          	mov    %rax,-0x10(%rbp)
  80042014d0:	48 8b 45 f0          	mov    -0x10(%rbp),%rax
  80042014d4:	ba 00 00 00 00       	mov    $0x0,%edx
  80042014d9:	48 f7 75 f8          	divq   -0x8(%rbp)
  80042014dd:	48 89 d0             	mov    %rdx,%rax
  80042014e0:	48 8b 55 f0          	mov    -0x10(%rbp),%rdx
  80042014e4:	48 89 d1             	mov    %rdx,%rcx
  80042014e7:	48 29 c1             	sub    %rax,%rcx
  80042014ea:	48 89 c8             	mov    %rcx,%rax
	cprintf("  _start                  %08x (phys)\n", _start);
	cprintf("  entry  %08x (virt)  %08x (phys)\n", entry, entry - KERNBASE);
	cprintf("  etext  %08x (virt)  %08x (phys)\n", etext, etext - KERNBASE);
	cprintf("  edata  %08x (virt)  %08x (phys)\n", edata, edata - KERNBASE);
	cprintf("  end    %08x (virt)  %08x (phys)\n", end, end - KERNBASE);
	cprintf("Kernel executable memory footprint: %dKB\n",
  80042014ed:	48 8d 90 ff 03 00 00 	lea    0x3ff(%rax),%rdx
  80042014f4:	48 85 c0             	test   %rax,%rax
  80042014f7:	48 0f 48 c2          	cmovs  %rdx,%rax
  80042014fb:	48 c1 f8 0a          	sar    $0xa,%rax
  80042014ff:	48 89 c6             	mov    %rax,%rsi
  8004201502:	48 bf 18 72 21 04 80 	movabs $0x8004217218,%rdi
  8004201509:	00 00 00 
  800420150c:	b8 00 00 00 00       	mov    $0x0,%eax
  8004201511:	48 ba f2 89 20 04 80 	movabs $0x80042089f2,%rdx
  8004201518:	00 00 00 
  800420151b:	ff d2                	callq  *%rdx
		ROUNDUP(end - entry, 1024) / 1024);
	return 0;
  800420151d:	b8 00 00 00 00       	mov    $0x0,%eax
}
  8004201522:	c9                   	leaveq 
  8004201523:	c3                   	retq   

0000008004201524 <mon_backtrace>:

int
mon_backtrace(int argc, char **argv, struct Trapframe *tf)
{
  8004201524:	55                   	push   %rbp
  8004201525:	48 89 e5             	mov    %rsp,%rbp
  8004201528:	53                   	push   %rbx
  8004201529:	48 81 ec d8 04 00 00 	sub    $0x4d8,%rsp
  8004201530:	89 bd 3c fb ff ff    	mov    %edi,-0x4c4(%rbp)
  8004201536:	48 89 b5 30 fb ff ff 	mov    %rsi,-0x4d0(%rbp)
  800420153d:	48 89 95 28 fb ff ff 	mov    %rdx,-0x4d8(%rbp)

static __inline uint64_t
read_rbp(void)
{
        uint64_t rbp;
        __asm __volatile("movq %%rbp,%0" : "=r" (rbp)::"cc","memory");
  8004201544:	48 89 eb             	mov    %rbp,%rbx
  8004201547:	48 89 5d c0          	mov    %rbx,-0x40(%rbp)
        return rbp;
  800420154b:	48 8b 45 c0          	mov    -0x40(%rbp),%rax
	// Your code here.
	uint64_t *ptr,num,var,*rip,rbp;
        int i;
	rbp=read_rbp();
  800420154f:	48 89 45 d0          	mov    %rax,-0x30(%rbp)
        ptr=(uint64_t*)rbp;
  8004201553:	48 8b 45 d0          	mov    -0x30(%rbp),%rax
  8004201557:	48 89 45 e8          	mov    %rax,-0x18(%rbp)
        struct Ripdebuginfo dbginfo;
        read_rip(var);
  800420155b:	48 8d 1d 00 00 00 00 	lea    0x0(%rip),%rbx        # 8004201562 <mon_backtrace+0x3e>
  8004201562:	48 89 5d e0          	mov    %rbx,-0x20(%rbp)
        cprintf("Stack backtrace:\n");
  8004201566:	48 bf 42 72 21 04 80 	movabs $0x8004217242,%rdi
  800420156d:	00 00 00 
  8004201570:	b8 00 00 00 00       	mov    $0x0,%eax
  8004201575:	48 ba f2 89 20 04 80 	movabs $0x80042089f2,%rdx
  800420157c:	00 00 00 
  800420157f:	ff d2                	callq  *%rdx
        do
         {
                 debuginfo_rip(var,&dbginfo);
  8004201581:	48 8d 95 40 fb ff ff 	lea    -0x4c0(%rbp),%rdx
  8004201588:	48 8b 45 e0          	mov    -0x20(%rbp),%rax
  800420158c:	48 89 d6             	mov    %rdx,%rsi
  800420158f:	48 89 c7             	mov    %rax,%rdi
  8004201592:	48 b8 8f d3 20 04 80 	movabs $0x800420d38f,%rax
  8004201599:	00 00 00 
  800420159c:	ff d0                	callq  *%rax
                 cprintf("  rbp %016llx  rip %016llx\n",ptr,var);
  800420159e:	48 8b 55 e0          	mov    -0x20(%rbp),%rdx
  80042015a2:	48 8b 45 e8          	mov    -0x18(%rbp),%rax
  80042015a6:	48 89 c6             	mov    %rax,%rsi
  80042015a9:	48 bf 54 72 21 04 80 	movabs $0x8004217254,%rdi
  80042015b0:	00 00 00 
  80042015b3:	b8 00 00 00 00       	mov    $0x0,%eax
  80042015b8:	48 b9 f2 89 20 04 80 	movabs $0x80042089f2,%rcx
  80042015bf:	00 00 00 
  80042015c2:	ff d1                	callq  *%rcx
                 cprintf("       %s:%d: %s+%016llx  args:%d  ",dbginfo.rip_file,dbginfo.rip_line,dbginfo.rip_fn_name,var-dbginfo.rip_fn_addr,dbginfo.rip_fn_narg);
  80042015c4:	8b b5 68 fb ff ff    	mov    -0x498(%rbp),%esi
  80042015ca:	48 8b 85 60 fb ff ff 	mov    -0x4a0(%rbp),%rax
  80042015d1:	48 8b 55 e0          	mov    -0x20(%rbp),%rdx
  80042015d5:	48 89 d7             	mov    %rdx,%rdi
  80042015d8:	48 29 c7             	sub    %rax,%rdi
  80042015db:	48 8b 8d 50 fb ff ff 	mov    -0x4b0(%rbp),%rcx
  80042015e2:	8b 95 48 fb ff ff    	mov    -0x4b8(%rbp),%edx
  80042015e8:	48 8b 85 40 fb ff ff 	mov    -0x4c0(%rbp),%rax
  80042015ef:	41 89 f1             	mov    %esi,%r9d
  80042015f2:	49 89 f8             	mov    %rdi,%r8
  80042015f5:	48 89 c6             	mov    %rax,%rsi
  80042015f8:	48 bf 70 72 21 04 80 	movabs $0x8004217270,%rdi
  80042015ff:	00 00 00 
  8004201602:	b8 00 00 00 00       	mov    $0x0,%eax
  8004201607:	49 ba f2 89 20 04 80 	movabs $0x80042089f2,%r10
  800420160e:	00 00 00 
  8004201611:	41 ff d2             	callq  *%r10
                 for(i=1;i<dbginfo.rip_fn_narg+1;i++)
  8004201614:	c7 45 dc 01 00 00 00 	movl   $0x1,-0x24(%rbp)
  800420161b:	eb 39                	jmp    8004201656 <mon_backtrace+0x132>
                        cprintf("%016llx ",(*(ptr-i))>>32);
  800420161d:	8b 45 dc             	mov    -0x24(%rbp),%eax
  8004201620:	48 98                	cltq   
  8004201622:	48 c1 e0 03          	shl    $0x3,%rax
  8004201626:	48 f7 d8             	neg    %rax
  8004201629:	48 03 45 e8          	add    -0x18(%rbp),%rax
  800420162d:	48 8b 00             	mov    (%rax),%rax
  8004201630:	48 c1 e8 20          	shr    $0x20,%rax
  8004201634:	48 89 c6             	mov    %rax,%rsi
  8004201637:	48 bf 94 72 21 04 80 	movabs $0x8004217294,%rdi
  800420163e:	00 00 00 
  8004201641:	b8 00 00 00 00       	mov    $0x0,%eax
  8004201646:	48 ba f2 89 20 04 80 	movabs $0x80042089f2,%rdx
  800420164d:	00 00 00 
  8004201650:	ff d2                	callq  *%rdx
        do
         {
                 debuginfo_rip(var,&dbginfo);
                 cprintf("  rbp %016llx  rip %016llx\n",ptr,var);
                 cprintf("       %s:%d: %s+%016llx  args:%d  ",dbginfo.rip_file,dbginfo.rip_line,dbginfo.rip_fn_name,var-dbginfo.rip_fn_addr,dbginfo.rip_fn_narg);
                 for(i=1;i<dbginfo.rip_fn_narg+1;i++)
  8004201652:	83 45 dc 01          	addl   $0x1,-0x24(%rbp)
  8004201656:	8b 85 68 fb ff ff    	mov    -0x498(%rbp),%eax
  800420165c:	83 c0 01             	add    $0x1,%eax
  800420165f:	3b 45 dc             	cmp    -0x24(%rbp),%eax
  8004201662:	7f b9                	jg     800420161d <mon_backtrace+0xf9>
                        cprintf("%016llx ",(*(ptr-i))>>32);
                 cprintf("\n");
  8004201664:	48 bf 9d 72 21 04 80 	movabs $0x800421729d,%rdi
  800420166b:	00 00 00 
  800420166e:	b8 00 00 00 00       	mov    $0x0,%eax
  8004201673:	48 ba f2 89 20 04 80 	movabs $0x80042089f2,%rdx
  800420167a:	00 00 00 
  800420167d:	ff d2                	callq  *%rdx
		 var=*(ptr+1);
  800420167f:	48 8b 45 e8          	mov    -0x18(%rbp),%rax
  8004201683:	48 8b 40 08          	mov    0x8(%rax),%rax
  8004201687:	48 89 45 e0          	mov    %rax,-0x20(%rbp)
                 num=*ptr;
  800420168b:	48 8b 45 e8          	mov    -0x18(%rbp),%rax
  800420168f:	48 8b 00             	mov    (%rax),%rax
  8004201692:	48 89 45 c8          	mov    %rax,-0x38(%rbp)
                 ptr=(uint64_t*) num;
  8004201696:	48 8b 45 c8          	mov    -0x38(%rbp),%rax
  800420169a:	48 89 45 e8          	mov    %rax,-0x18(%rbp)
         }while(ptr!=0);
  800420169e:	48 83 7d e8 00       	cmpq   $0x0,-0x18(%rbp)
  80042016a3:	0f 85 d8 fe ff ff    	jne    8004201581 <mon_backtrace+0x5d>
return 0;
  80042016a9:	b8 00 00 00 00       	mov    $0x0,%eax
}
  80042016ae:	48 81 c4 d8 04 00 00 	add    $0x4d8,%rsp
  80042016b5:	5b                   	pop    %rbx
  80042016b6:	5d                   	pop    %rbp
  80042016b7:	c3                   	retq   

00000080042016b8 <runcmd>:
#define WHITESPACE "\t\r\n "
#define MAXARGS 16

static int
runcmd(char *buf, struct Trapframe *tf)
{
  80042016b8:	55                   	push   %rbp
  80042016b9:	48 89 e5             	mov    %rsp,%rbp
  80042016bc:	48 81 ec a0 00 00 00 	sub    $0xa0,%rsp
  80042016c3:	48 89 bd 68 ff ff ff 	mov    %rdi,-0x98(%rbp)
  80042016ca:	48 89 b5 60 ff ff ff 	mov    %rsi,-0xa0(%rbp)
	int argc;
	char *argv[MAXARGS];
	int i;

	// Parse the command buffer into whitespace-separated arguments
	argc = 0;
  80042016d1:	c7 45 fc 00 00 00 00 	movl   $0x0,-0x4(%rbp)
	argv[argc] = 0;
  80042016d8:	8b 45 fc             	mov    -0x4(%rbp),%eax
  80042016db:	48 98                	cltq   
  80042016dd:	48 c7 84 c5 70 ff ff 	movq   $0x0,-0x90(%rbp,%rax,8)
  80042016e4:	ff 00 00 00 00 
	while (1) {
		// gobble whitespace
		while (*buf && strchr(WHITESPACE, *buf))
  80042016e9:	eb 15                	jmp    8004201700 <runcmd+0x48>
			return 0;
		}
		argv[argc++] = buf;
		while (*buf && !strchr(WHITESPACE, *buf))
			buf++;
	}
  80042016eb:	90                   	nop
	// Parse the command buffer into whitespace-separated arguments
	argc = 0;
	argv[argc] = 0;
	while (1) {
		// gobble whitespace
		while (*buf && strchr(WHITESPACE, *buf))
  80042016ec:	eb 12                	jmp    8004201700 <runcmd+0x48>
			*buf++ = 0;
  80042016ee:	48 8b 85 68 ff ff ff 	mov    -0x98(%rbp),%rax
  80042016f5:	c6 00 00             	movb   $0x0,(%rax)
  80042016f8:	48 83 85 68 ff ff ff 	addq   $0x1,-0x98(%rbp)
  80042016ff:	01 
	// Parse the command buffer into whitespace-separated arguments
	argc = 0;
	argv[argc] = 0;
	while (1) {
		// gobble whitespace
		while (*buf && strchr(WHITESPACE, *buf))
  8004201700:	48 8b 85 68 ff ff ff 	mov    -0x98(%rbp),%rax
  8004201707:	0f b6 00             	movzbl (%rax),%eax
  800420170a:	84 c0                	test   %al,%al
  800420170c:	74 2a                	je     8004201738 <runcmd+0x80>
  800420170e:	48 8b 85 68 ff ff ff 	mov    -0x98(%rbp),%rax
  8004201715:	0f b6 00             	movzbl (%rax),%eax
  8004201718:	0f be c0             	movsbl %al,%eax
  800420171b:	89 c6                	mov    %eax,%esi
  800420171d:	48 bf 9f 72 21 04 80 	movabs $0x800421729f,%rdi
  8004201724:	00 00 00 
  8004201727:	48 b8 df e5 20 04 80 	movabs $0x800420e5df,%rax
  800420172e:	00 00 00 
  8004201731:	ff d0                	callq  *%rax
  8004201733:	48 85 c0             	test   %rax,%rax
  8004201736:	75 b6                	jne    80042016ee <runcmd+0x36>
			*buf++ = 0;
		if (*buf == 0)
  8004201738:	48 8b 85 68 ff ff ff 	mov    -0x98(%rbp),%rax
  800420173f:	0f b6 00             	movzbl (%rax),%eax
  8004201742:	84 c0                	test   %al,%al
  8004201744:	0f 84 93 00 00 00    	je     80042017dd <runcmd+0x125>
			break;

		// save and scan past next arg
		if (argc == MAXARGS-1) {
  800420174a:	83 7d fc 0f          	cmpl   $0xf,-0x4(%rbp)
  800420174e:	75 2a                	jne    800420177a <runcmd+0xc2>
			cprintf("Too many arguments (max %d)\n", MAXARGS);
  8004201750:	be 10 00 00 00       	mov    $0x10,%esi
  8004201755:	48 bf a4 72 21 04 80 	movabs $0x80042172a4,%rdi
  800420175c:	00 00 00 
  800420175f:	b8 00 00 00 00       	mov    $0x0,%eax
  8004201764:	48 ba f2 89 20 04 80 	movabs $0x80042089f2,%rdx
  800420176b:	00 00 00 
  800420176e:	ff d2                	callq  *%rdx
			return 0;
  8004201770:	b8 00 00 00 00       	mov    $0x0,%eax
  8004201775:	e9 4d 01 00 00       	jmpq   80042018c7 <runcmd+0x20f>
		}
		argv[argc++] = buf;
  800420177a:	8b 45 fc             	mov    -0x4(%rbp),%eax
  800420177d:	48 98                	cltq   
  800420177f:	48 8b 95 68 ff ff ff 	mov    -0x98(%rbp),%rdx
  8004201786:	48 89 94 c5 70 ff ff 	mov    %rdx,-0x90(%rbp,%rax,8)
  800420178d:	ff 
  800420178e:	83 45 fc 01          	addl   $0x1,-0x4(%rbp)
		while (*buf && !strchr(WHITESPACE, *buf))
  8004201792:	eb 08                	jmp    800420179c <runcmd+0xe4>
			buf++;
  8004201794:	48 83 85 68 ff ff ff 	addq   $0x1,-0x98(%rbp)
  800420179b:	01 
		if (argc == MAXARGS-1) {
			cprintf("Too many arguments (max %d)\n", MAXARGS);
			return 0;
		}
		argv[argc++] = buf;
		while (*buf && !strchr(WHITESPACE, *buf))
  800420179c:	48 8b 85 68 ff ff ff 	mov    -0x98(%rbp),%rax
  80042017a3:	0f b6 00             	movzbl (%rax),%eax
  80042017a6:	84 c0                	test   %al,%al
  80042017a8:	0f 84 3d ff ff ff    	je     80042016eb <runcmd+0x33>
  80042017ae:	48 8b 85 68 ff ff ff 	mov    -0x98(%rbp),%rax
  80042017b5:	0f b6 00             	movzbl (%rax),%eax
  80042017b8:	0f be c0             	movsbl %al,%eax
  80042017bb:	89 c6                	mov    %eax,%esi
  80042017bd:	48 bf 9f 72 21 04 80 	movabs $0x800421729f,%rdi
  80042017c4:	00 00 00 
  80042017c7:	48 b8 df e5 20 04 80 	movabs $0x800420e5df,%rax
  80042017ce:	00 00 00 
  80042017d1:	ff d0                	callq  *%rax
  80042017d3:	48 85 c0             	test   %rax,%rax
  80042017d6:	74 bc                	je     8004201794 <runcmd+0xdc>
			buf++;
	}
  80042017d8:	e9 0e ff ff ff       	jmpq   80042016eb <runcmd+0x33>
	while (1) {
		// gobble whitespace
		while (*buf && strchr(WHITESPACE, *buf))
			*buf++ = 0;
		if (*buf == 0)
			break;
  80042017dd:	90                   	nop
		}
		argv[argc++] = buf;
		while (*buf && !strchr(WHITESPACE, *buf))
			buf++;
	}
	argv[argc] = 0;
  80042017de:	8b 45 fc             	mov    -0x4(%rbp),%eax
  80042017e1:	48 98                	cltq   
  80042017e3:	48 c7 84 c5 70 ff ff 	movq   $0x0,-0x90(%rbp,%rax,8)
  80042017ea:	ff 00 00 00 00 

	// Lookup and invoke the command
	if (argc == 0)
  80042017ef:	83 7d fc 00          	cmpl   $0x0,-0x4(%rbp)
  80042017f3:	75 0a                	jne    80042017ff <runcmd+0x147>
		return 0;
  80042017f5:	b8 00 00 00 00       	mov    $0x0,%eax
  80042017fa:	e9 c8 00 00 00       	jmpq   80042018c7 <runcmd+0x20f>
	for (i = 0; i < NCOMMANDS; i++) {
  80042017ff:	c7 45 f8 00 00 00 00 	movl   $0x0,-0x8(%rbp)
  8004201806:	e9 86 00 00 00       	jmpq   8004201891 <runcmd+0x1d9>
		if (strcmp(argv[0], commands[i].name) == 0)
  800420180b:	48 b9 80 a5 22 04 80 	movabs $0x800422a580,%rcx
  8004201812:	00 00 00 
  8004201815:	8b 45 f8             	mov    -0x8(%rbp),%eax
  8004201818:	48 63 d0             	movslq %eax,%rdx
  800420181b:	48 89 d0             	mov    %rdx,%rax
  800420181e:	48 01 c0             	add    %rax,%rax
  8004201821:	48 01 d0             	add    %rdx,%rax
  8004201824:	48 c1 e0 03          	shl    $0x3,%rax
  8004201828:	48 01 c8             	add    %rcx,%rax
  800420182b:	48 8b 10             	mov    (%rax),%rdx
  800420182e:	48 8b 85 70 ff ff ff 	mov    -0x90(%rbp),%rax
  8004201835:	48 89 d6             	mov    %rdx,%rsi
  8004201838:	48 89 c7             	mov    %rax,%rdi
  800420183b:	48 b8 17 e5 20 04 80 	movabs $0x800420e517,%rax
  8004201842:	00 00 00 
  8004201845:	ff d0                	callq  *%rax
  8004201847:	85 c0                	test   %eax,%eax
  8004201849:	75 42                	jne    800420188d <runcmd+0x1d5>
			return commands[i].func(argc, argv, tf);
  800420184b:	48 b9 80 a5 22 04 80 	movabs $0x800422a580,%rcx
  8004201852:	00 00 00 
  8004201855:	8b 45 f8             	mov    -0x8(%rbp),%eax
  8004201858:	48 63 d0             	movslq %eax,%rdx
  800420185b:	48 89 d0             	mov    %rdx,%rax
  800420185e:	48 01 c0             	add    %rax,%rax
  8004201861:	48 01 d0             	add    %rdx,%rax
  8004201864:	48 c1 e0 03          	shl    $0x3,%rax
  8004201868:	48 01 c8             	add    %rcx,%rax
  800420186b:	48 83 c0 10          	add    $0x10,%rax
  800420186f:	4c 8b 00             	mov    (%rax),%r8
  8004201872:	48 8b 95 60 ff ff ff 	mov    -0xa0(%rbp),%rdx
  8004201879:	48 8d 8d 70 ff ff ff 	lea    -0x90(%rbp),%rcx
  8004201880:	8b 45 fc             	mov    -0x4(%rbp),%eax
  8004201883:	48 89 ce             	mov    %rcx,%rsi
  8004201886:	89 c7                	mov    %eax,%edi
  8004201888:	41 ff d0             	callq  *%r8
  800420188b:	eb 3a                	jmp    80042018c7 <runcmd+0x20f>
	argv[argc] = 0;

	// Lookup and invoke the command
	if (argc == 0)
		return 0;
	for (i = 0; i < NCOMMANDS; i++) {
  800420188d:	83 45 f8 01          	addl   $0x1,-0x8(%rbp)
  8004201891:	8b 45 f8             	mov    -0x8(%rbp),%eax
  8004201894:	83 f8 02             	cmp    $0x2,%eax
  8004201897:	0f 86 6e ff ff ff    	jbe    800420180b <runcmd+0x153>
		if (strcmp(argv[0], commands[i].name) == 0)
			return commands[i].func(argc, argv, tf);
	}
	cprintf("Unknown command '%s'\n", argv[0]);
  800420189d:	48 8b 85 70 ff ff ff 	mov    -0x90(%rbp),%rax
  80042018a4:	48 89 c6             	mov    %rax,%rsi
  80042018a7:	48 bf c1 72 21 04 80 	movabs $0x80042172c1,%rdi
  80042018ae:	00 00 00 
  80042018b1:	b8 00 00 00 00       	mov    $0x0,%eax
  80042018b6:	48 ba f2 89 20 04 80 	movabs $0x80042089f2,%rdx
  80042018bd:	00 00 00 
  80042018c0:	ff d2                	callq  *%rdx
	return 0;
  80042018c2:	b8 00 00 00 00       	mov    $0x0,%eax
}
  80042018c7:	c9                   	leaveq 
  80042018c8:	c3                   	retq   

00000080042018c9 <monitor>:

void
monitor(struct Trapframe *tf)
{
  80042018c9:	55                   	push   %rbp
  80042018ca:	48 89 e5             	mov    %rsp,%rbp
  80042018cd:	48 83 ec 20          	sub    $0x20,%rsp
  80042018d1:	48 89 7d e8          	mov    %rdi,-0x18(%rbp)
	char *buf;

	cprintf("Welcome to the JOS kernel monitor!\n");
  80042018d5:	48 bf d8 72 21 04 80 	movabs $0x80042172d8,%rdi
  80042018dc:	00 00 00 
  80042018df:	b8 00 00 00 00       	mov    $0x0,%eax
  80042018e4:	48 ba f2 89 20 04 80 	movabs $0x80042089f2,%rdx
  80042018eb:	00 00 00 
  80042018ee:	ff d2                	callq  *%rdx
	cprintf("Type 'help' for a list of commands.\n");
  80042018f0:	48 bf 00 73 21 04 80 	movabs $0x8004217300,%rdi
  80042018f7:	00 00 00 
  80042018fa:	b8 00 00 00 00       	mov    $0x0,%eax
  80042018ff:	48 ba f2 89 20 04 80 	movabs $0x80042089f2,%rdx
  8004201906:	00 00 00 
  8004201909:	ff d2                	callq  *%rdx

	if (tf != NULL)
  800420190b:	48 83 7d e8 00       	cmpq   $0x0,-0x18(%rbp)
  8004201910:	74 16                	je     8004201928 <monitor+0x5f>
		print_trapframe(tf);
  8004201912:	48 8b 45 e8          	mov    -0x18(%rbp),%rax
  8004201916:	48 89 c7             	mov    %rax,%rdi
  8004201919:	48 b8 f8 ac 20 04 80 	movabs $0x800420acf8,%rax
  8004201920:	00 00 00 
  8004201923:	ff d0                	callq  *%rax
  8004201925:	eb 01                	jmp    8004201928 <monitor+0x5f>
	while (1) {
		buf = readline("K> ");
		if (buf != NULL)
			if (runcmd(buf, tf) < 0)
				break;
	}
  8004201927:	90                   	nop

	if (tf != NULL)
		print_trapframe(tf);

	while (1) {
		buf = readline("K> ");
  8004201928:	48 bf 25 73 21 04 80 	movabs $0x8004217325,%rdi
  800420192f:	00 00 00 
  8004201932:	48 b8 f4 e1 20 04 80 	movabs $0x800420e1f4,%rax
  8004201939:	00 00 00 
  800420193c:	ff d0                	callq  *%rax
  800420193e:	48 89 45 f8          	mov    %rax,-0x8(%rbp)
		if (buf != NULL)
  8004201942:	48 83 7d f8 00       	cmpq   $0x0,-0x8(%rbp)
  8004201947:	74 de                	je     8004201927 <monitor+0x5e>
			if (runcmd(buf, tf) < 0)
  8004201949:	48 8b 55 e8          	mov    -0x18(%rbp),%rdx
  800420194d:	48 8b 45 f8          	mov    -0x8(%rbp),%rax
  8004201951:	48 89 d6             	mov    %rdx,%rsi
  8004201954:	48 89 c7             	mov    %rax,%rdi
  8004201957:	48 b8 b8 16 20 04 80 	movabs $0x80042016b8,%rax
  800420195e:	00 00 00 
  8004201961:	ff d0                	callq  *%rax
  8004201963:	85 c0                	test   %eax,%eax
  8004201965:	79 c0                	jns    8004201927 <monitor+0x5e>
				break;
  8004201967:	90                   	nop
	}
}
  8004201968:	c9                   	leaveq 
  8004201969:	c3                   	retq   
	...

000000800420196c <page2ppn>:
int	user_mem_check(struct Env *env, const void *va, size_t len, int perm);
void	user_mem_assert(struct Env *env, const void *va, size_t len, int perm);

static inline ppn_t
page2ppn(struct PageInfo *pp)
{
  800420196c:	55                   	push   %rbp
  800420196d:	48 89 e5             	mov    %rsp,%rbp
  8004201970:	48 83 ec 08          	sub    $0x8,%rsp
  8004201974:	48 89 7d f8          	mov    %rdi,-0x8(%rbp)
	return pp - pages;
  8004201978:	48 8b 55 f8          	mov    -0x8(%rbp),%rdx
  800420197c:	48 b8 e8 c7 63 04 80 	movabs $0x800463c7e8,%rax
  8004201983:	00 00 00 
  8004201986:	48 8b 00             	mov    (%rax),%rax
  8004201989:	48 89 d1             	mov    %rdx,%rcx
  800420198c:	48 29 c1             	sub    %rax,%rcx
  800420198f:	48 89 c8             	mov    %rcx,%rax
  8004201992:	48 c1 f8 04          	sar    $0x4,%rax
}
  8004201996:	c9                   	leaveq 
  8004201997:	c3                   	retq   

0000008004201998 <page2pa>:

static inline physaddr_t
page2pa(struct PageInfo *pp)
{
  8004201998:	55                   	push   %rbp
  8004201999:	48 89 e5             	mov    %rsp,%rbp
  800420199c:	48 83 ec 08          	sub    $0x8,%rsp
  80042019a0:	48 89 7d f8          	mov    %rdi,-0x8(%rbp)
	return page2ppn(pp) << PGSHIFT;
  80042019a4:	48 8b 45 f8          	mov    -0x8(%rbp),%rax
  80042019a8:	48 89 c7             	mov    %rax,%rdi
  80042019ab:	48 b8 6c 19 20 04 80 	movabs $0x800420196c,%rax
  80042019b2:	00 00 00 
  80042019b5:	ff d0                	callq  *%rax
  80042019b7:	48 c1 e0 0c          	shl    $0xc,%rax
}
  80042019bb:	c9                   	leaveq 
  80042019bc:	c3                   	retq   

00000080042019bd <pa2page>:

static inline struct PageInfo*
pa2page(physaddr_t pa)
{
  80042019bd:	55                   	push   %rbp
  80042019be:	48 89 e5             	mov    %rsp,%rbp
  80042019c1:	48 83 ec 10          	sub    $0x10,%rsp
  80042019c5:	48 89 7d f8          	mov    %rdi,-0x8(%rbp)
	if (PPN(pa) >= npages)
  80042019c9:	48 8b 45 f8          	mov    -0x8(%rbp),%rax
  80042019cd:	48 89 c2             	mov    %rax,%rdx
  80042019d0:	48 c1 ea 0c          	shr    $0xc,%rdx
  80042019d4:	48 b8 e0 c7 63 04 80 	movabs $0x800463c7e0,%rax
  80042019db:	00 00 00 
  80042019de:	48 8b 00             	mov    (%rax),%rax
  80042019e1:	48 39 c2             	cmp    %rax,%rdx
  80042019e4:	72 2a                	jb     8004201a10 <pa2page+0x53>
		panic("pa2page called with invalid pa");
  80042019e6:	48 ba 30 73 21 04 80 	movabs $0x8004217330,%rdx
  80042019ed:	00 00 00 
  80042019f0:	be 59 00 00 00       	mov    $0x59,%esi
  80042019f5:	48 bf 4f 73 21 04 80 	movabs $0x800421734f,%rdi
  80042019fc:	00 00 00 
  80042019ff:	b8 00 00 00 00       	mov    $0x0,%eax
  8004201a04:	48 b9 f2 04 20 04 80 	movabs $0x80042004f2,%rcx
  8004201a0b:	00 00 00 
  8004201a0e:	ff d1                	callq  *%rcx
	return &pages[PPN(pa)];
  8004201a10:	48 b8 e8 c7 63 04 80 	movabs $0x800463c7e8,%rax
  8004201a17:	00 00 00 
  8004201a1a:	48 8b 00             	mov    (%rax),%rax
  8004201a1d:	48 8b 55 f8          	mov    -0x8(%rbp),%rdx
  8004201a21:	48 c1 ea 0c          	shr    $0xc,%rdx
  8004201a25:	48 c1 e2 04          	shl    $0x4,%rdx
  8004201a29:	48 01 d0             	add    %rdx,%rax
}
  8004201a2c:	c9                   	leaveq 
  8004201a2d:	c3                   	retq   

0000008004201a2e <page2kva>:

static inline void*
page2kva(struct PageInfo *pp)
{
  8004201a2e:	55                   	push   %rbp
  8004201a2f:	48 89 e5             	mov    %rsp,%rbp
  8004201a32:	48 83 ec 20          	sub    $0x20,%rsp
  8004201a36:	48 89 7d e8          	mov    %rdi,-0x18(%rbp)
	return KADDR(page2pa(pp));
  8004201a3a:	48 8b 45 e8          	mov    -0x18(%rbp),%rax
  8004201a3e:	48 89 c7             	mov    %rax,%rdi
  8004201a41:	48 b8 98 19 20 04 80 	movabs $0x8004201998,%rax
  8004201a48:	00 00 00 
  8004201a4b:	ff d0                	callq  *%rax
  8004201a4d:	48 89 45 f8          	mov    %rax,-0x8(%rbp)
  8004201a51:	48 8b 45 f8          	mov    -0x8(%rbp),%rax
  8004201a55:	48 c1 e8 0c          	shr    $0xc,%rax
  8004201a59:	89 45 f4             	mov    %eax,-0xc(%rbp)
  8004201a5c:	8b 55 f4             	mov    -0xc(%rbp),%edx
  8004201a5f:	48 b8 e0 c7 63 04 80 	movabs $0x800463c7e0,%rax
  8004201a66:	00 00 00 
  8004201a69:	48 8b 00             	mov    (%rax),%rax
  8004201a6c:	48 39 c2             	cmp    %rax,%rdx
  8004201a6f:	72 32                	jb     8004201aa3 <page2kva+0x75>
  8004201a71:	48 8b 45 f8          	mov    -0x8(%rbp),%rax
  8004201a75:	48 89 c1             	mov    %rax,%rcx
  8004201a78:	48 ba 60 73 21 04 80 	movabs $0x8004217360,%rdx
  8004201a7f:	00 00 00 
  8004201a82:	be 60 00 00 00       	mov    $0x60,%esi
  8004201a87:	48 bf 4f 73 21 04 80 	movabs $0x800421734f,%rdi
  8004201a8e:	00 00 00 
  8004201a91:	b8 00 00 00 00       	mov    $0x0,%eax
  8004201a96:	49 b8 f2 04 20 04 80 	movabs $0x80042004f2,%r8
  8004201a9d:	00 00 00 
  8004201aa0:	41 ff d0             	callq  *%r8
  8004201aa3:	48 b8 00 00 00 04 80 	movabs $0x8004000000,%rax
  8004201aaa:	00 00 00 
  8004201aad:	48 03 45 f8          	add    -0x8(%rbp),%rax
}
  8004201ab1:	c9                   	leaveq 
  8004201ab2:	c3                   	retq   

0000008004201ab3 <restrictive_type>:
   uint32_t length_low;
   uint32_t length_high;
   uint32_t type;
 } memory_map_t;

uint32_t restrictive_type(uint32_t t1, uint32_t t2) {
  8004201ab3:	55                   	push   %rbp
  8004201ab4:	48 89 e5             	mov    %rsp,%rbp
  8004201ab7:	48 83 ec 08          	sub    $0x8,%rsp
  8004201abb:	89 7d fc             	mov    %edi,-0x4(%rbp)
  8004201abe:	89 75 f8             	mov    %esi,-0x8(%rbp)
  if(t1==MB_TYPE_BAD || t2==MB_TYPE_BAD)
  8004201ac1:	83 7d fc 05          	cmpl   $0x5,-0x4(%rbp)
  8004201ac5:	74 06                	je     8004201acd <restrictive_type+0x1a>
  8004201ac7:	83 7d f8 05          	cmpl   $0x5,-0x8(%rbp)
  8004201acb:	75 07                	jne    8004201ad4 <restrictive_type+0x21>
    return MB_TYPE_BAD;
  8004201acd:	b8 05 00 00 00       	mov    $0x5,%eax
  8004201ad2:	eb 3e                	jmp    8004201b12 <restrictive_type+0x5f>
  else if(t1==MB_TYPE_ACPI_NVS || t2==MB_TYPE_ACPI_NVS)
  8004201ad4:	83 7d fc 04          	cmpl   $0x4,-0x4(%rbp)
  8004201ad8:	74 06                	je     8004201ae0 <restrictive_type+0x2d>
  8004201ada:	83 7d f8 04          	cmpl   $0x4,-0x8(%rbp)
  8004201ade:	75 07                	jne    8004201ae7 <restrictive_type+0x34>
    return MB_TYPE_ACPI_NVS;
  8004201ae0:	b8 04 00 00 00       	mov    $0x4,%eax
  8004201ae5:	eb 2b                	jmp    8004201b12 <restrictive_type+0x5f>
  else if(t1==MB_TYPE_RESERVED || t2==MB_TYPE_RESERVED)
  8004201ae7:	83 7d fc 02          	cmpl   $0x2,-0x4(%rbp)
  8004201aeb:	74 06                	je     8004201af3 <restrictive_type+0x40>
  8004201aed:	83 7d f8 02          	cmpl   $0x2,-0x8(%rbp)
  8004201af1:	75 07                	jne    8004201afa <restrictive_type+0x47>
    return MB_TYPE_RESERVED;
  8004201af3:	b8 02 00 00 00       	mov    $0x2,%eax
  8004201af8:	eb 18                	jmp    8004201b12 <restrictive_type+0x5f>
  else if(t1==MB_TYPE_ACPI_RECLM || t2==MB_TYPE_ACPI_RECLM)
  8004201afa:	83 7d fc 03          	cmpl   $0x3,-0x4(%rbp)
  8004201afe:	74 06                	je     8004201b06 <restrictive_type+0x53>
  8004201b00:	83 7d f8 03          	cmpl   $0x3,-0x8(%rbp)
  8004201b04:	75 07                	jne    8004201b0d <restrictive_type+0x5a>
    return MB_TYPE_ACPI_RECLM;
  8004201b06:	b8 03 00 00 00       	mov    $0x3,%eax
  8004201b0b:	eb 05                	jmp    8004201b12 <restrictive_type+0x5f>

  return MB_TYPE_USABLE;
  8004201b0d:	b8 01 00 00 00       	mov    $0x1,%eax
}
  8004201b12:	c9                   	leaveq 
  8004201b13:	c3                   	retq   

0000008004201b14 <nvram_read>:
// Detect machine's physical memory setup.
// --------------------------------------------------------------

static int
nvram_read(int r)
{
  8004201b14:	55                   	push   %rbp
  8004201b15:	48 89 e5             	mov    %rsp,%rbp
  8004201b18:	53                   	push   %rbx
  8004201b19:	48 83 ec 18          	sub    $0x18,%rsp
  8004201b1d:	89 7d ec             	mov    %edi,-0x14(%rbp)
	return mc146818_read(r) | (mc146818_read(r + 1) << 8);
  8004201b20:	8b 45 ec             	mov    -0x14(%rbp),%eax
  8004201b23:	89 c7                	mov    %eax,%edi
  8004201b25:	48 b8 64 86 20 04 80 	movabs $0x8004208664,%rax
  8004201b2c:	00 00 00 
  8004201b2f:	ff d0                	callq  *%rax
  8004201b31:	89 c3                	mov    %eax,%ebx
  8004201b33:	8b 45 ec             	mov    -0x14(%rbp),%eax
  8004201b36:	83 c0 01             	add    $0x1,%eax
  8004201b39:	89 c7                	mov    %eax,%edi
  8004201b3b:	48 b8 64 86 20 04 80 	movabs $0x8004208664,%rax
  8004201b42:	00 00 00 
  8004201b45:	ff d0                	callq  *%rax
  8004201b47:	c1 e0 08             	shl    $0x8,%eax
  8004201b4a:	09 d8                	or     %ebx,%eax
}
  8004201b4c:	48 83 c4 18          	add    $0x18,%rsp
  8004201b50:	5b                   	pop    %rbx
  8004201b51:	5d                   	pop    %rbp
  8004201b52:	c3                   	retq   

0000008004201b53 <multiboot_read>:

static void
multiboot_read(multiboot_info_t* mbinfo, size_t* basemem, size_t* extmem) {
  8004201b53:	55                   	push   %rbp
  8004201b54:	48 89 e5             	mov    %rsp,%rbp
  8004201b57:	53                   	push   %rbx
  8004201b58:	48 81 ec c8 00 00 00 	sub    $0xc8,%rsp
  8004201b5f:	48 89 bd 58 ff ff ff 	mov    %rdi,-0xa8(%rbp)
  8004201b66:	48 89 b5 50 ff ff ff 	mov    %rsi,-0xb0(%rbp)
  8004201b6d:	48 89 95 48 ff ff ff 	mov    %rdx,-0xb8(%rbp)
  8004201b74:	48 89 e0             	mov    %rsp,%rax
  8004201b77:	48 89 c3             	mov    %rax,%rbx
	int i;

	memory_map_t* mmap_base = (memory_map_t*)(uintptr_t)mbinfo->mmap_addr;
  8004201b7a:	48 8b 85 58 ff ff ff 	mov    -0xa8(%rbp),%rax
  8004201b81:	8b 40 30             	mov    0x30(%rax),%eax
  8004201b84:	89 c0                	mov    %eax,%eax
  8004201b86:	48 89 45 d8          	mov    %rax,-0x28(%rbp)
 	memory_map_t* mmap_list[mbinfo->mmap_length/ (sizeof(memory_map_t))];
  8004201b8a:	48 8b 85 58 ff ff ff 	mov    -0xa8(%rbp),%rax
  8004201b91:	8b 40 2c             	mov    0x2c(%rax),%eax
  8004201b94:	89 85 44 ff ff ff    	mov    %eax,-0xbc(%rbp)
  8004201b9a:	ba ab aa aa aa       	mov    $0xaaaaaaab,%edx
  8004201b9f:	8b 85 44 ff ff ff    	mov    -0xbc(%rbp),%eax
  8004201ba5:	f7 e2                	mul    %edx
  8004201ba7:	89 d0                	mov    %edx,%eax
  8004201ba9:	c1 e8 04             	shr    $0x4,%eax
  8004201bac:	89 c0                	mov    %eax,%eax
  8004201bae:	48 89 c2             	mov    %rax,%rdx
  8004201bb1:	48 83 ea 01          	sub    $0x1,%rdx
  8004201bb5:	48 89 55 d0          	mov    %rdx,-0x30(%rbp)
  8004201bb9:	48 c1 e0 03          	shl    $0x3,%rax
  8004201bbd:	48 8d 50 0f          	lea    0xf(%rax),%rdx
  8004201bc1:	b8 10 00 00 00       	mov    $0x10,%eax
  8004201bc6:	48 83 e8 01          	sub    $0x1,%rax
  8004201bca:	48 01 d0             	add    %rdx,%rax
  8004201bcd:	48 c7 85 38 ff ff ff 	movq   $0x10,-0xc8(%rbp)
  8004201bd4:	10 00 00 00 
  8004201bd8:	ba 00 00 00 00       	mov    $0x0,%edx
  8004201bdd:	48 f7 b5 38 ff ff ff 	divq   -0xc8(%rbp)
  8004201be4:	48 6b c0 10          	imul   $0x10,%rax,%rax
  8004201be8:	48 29 c4             	sub    %rax,%rsp
  8004201beb:	48 89 e0             	mov    %rsp,%rax
  8004201bee:	48 83 c0 0f          	add    $0xf,%rax
  8004201bf2:	48 c1 e8 04          	shr    $0x4,%rax
  8004201bf6:	48 c1 e0 04          	shl    $0x4,%rax
  8004201bfa:	48 89 45 c8          	mov    %rax,-0x38(%rbp)

    cprintf("\ne820 MEMORY MAP\n");
  8004201bfe:	48 bf 83 73 21 04 80 	movabs $0x8004217383,%rdi
  8004201c05:	00 00 00 
  8004201c08:	b8 00 00 00 00       	mov    $0x0,%eax
  8004201c0d:	48 ba f2 89 20 04 80 	movabs $0x80042089f2,%rdx
  8004201c14:	00 00 00 
  8004201c17:	ff d2                	callq  *%rdx
    for(i = 0; i < (mbinfo->mmap_length / (sizeof(memory_map_t))); i++) {
  8004201c19:	c7 45 ec 00 00 00 00 	movl   $0x0,-0x14(%rbp)
  8004201c20:	e9 66 01 00 00       	jmpq   8004201d8b <multiboot_read+0x238>
    	memory_map_t* mmap = &mmap_base[i];
  8004201c25:	8b 45 ec             	mov    -0x14(%rbp),%eax
  8004201c28:	48 63 d0             	movslq %eax,%rdx
  8004201c2b:	48 89 d0             	mov    %rdx,%rax
  8004201c2e:	48 01 c0             	add    %rax,%rax
  8004201c31:	48 01 d0             	add    %rdx,%rax
  8004201c34:	48 c1 e0 03          	shl    $0x3,%rax
  8004201c38:	48 03 45 d8          	add    -0x28(%rbp),%rax
  8004201c3c:	48 89 45 c0          	mov    %rax,-0x40(%rbp)

    	uint64_t addr = APPEND_HILO(mmap->base_addr_high, mmap->base_addr_low);
  8004201c40:	48 8b 45 c0          	mov    -0x40(%rbp),%rax
  8004201c44:	8b 40 08             	mov    0x8(%rax),%eax
  8004201c47:	89 c0                	mov    %eax,%eax
  8004201c49:	48 89 c2             	mov    %rax,%rdx
  8004201c4c:	48 c1 e2 20          	shl    $0x20,%rdx
  8004201c50:	48 8b 45 c0          	mov    -0x40(%rbp),%rax
  8004201c54:	8b 40 04             	mov    0x4(%rax),%eax
  8004201c57:	89 c0                	mov    %eax,%eax
  8004201c59:	48 01 d0             	add    %rdx,%rax
  8004201c5c:	48 89 45 b8          	mov    %rax,-0x48(%rbp)
    	uint64_t len = APPEND_HILO(mmap->length_high, mmap->length_low);
  8004201c60:	48 8b 45 c0          	mov    -0x40(%rbp),%rax
  8004201c64:	8b 40 10             	mov    0x10(%rax),%eax
  8004201c67:	89 c0                	mov    %eax,%eax
  8004201c69:	48 89 c2             	mov    %rax,%rdx
  8004201c6c:	48 c1 e2 20          	shl    $0x20,%rdx
  8004201c70:	48 8b 45 c0          	mov    -0x40(%rbp),%rax
  8004201c74:	8b 40 0c             	mov    0xc(%rax),%eax
  8004201c77:	89 c0                	mov    %eax,%eax
  8004201c79:	48 01 d0             	add    %rdx,%rax
  8004201c7c:	48 89 45 b0          	mov    %rax,-0x50(%rbp)
        
        cprintf("size: %d, address: 0x%016x, length: 0x%016x, type: %x\n", mmap->size, 
                addr, len, mmap->type);
  8004201c80:	48 8b 45 c0          	mov    -0x40(%rbp),%rax
    	memory_map_t* mmap = &mmap_base[i];

    	uint64_t addr = APPEND_HILO(mmap->base_addr_high, mmap->base_addr_low);
    	uint64_t len = APPEND_HILO(mmap->length_high, mmap->length_low);
        
        cprintf("size: %d, address: 0x%016x, length: 0x%016x, type: %x\n", mmap->size, 
  8004201c84:	8b 70 14             	mov    0x14(%rax),%esi
  8004201c87:	48 8b 45 c0          	mov    -0x40(%rbp),%rax
  8004201c8b:	8b 00                	mov    (%rax),%eax
  8004201c8d:	48 8b 4d b0          	mov    -0x50(%rbp),%rcx
  8004201c91:	48 8b 55 b8          	mov    -0x48(%rbp),%rdx
  8004201c95:	41 89 f0             	mov    %esi,%r8d
  8004201c98:	89 c6                	mov    %eax,%esi
  8004201c9a:	48 bf 98 73 21 04 80 	movabs $0x8004217398,%rdi
  8004201ca1:	00 00 00 
  8004201ca4:	b8 00 00 00 00       	mov    $0x0,%eax
  8004201ca9:	49 b9 f2 89 20 04 80 	movabs $0x80042089f2,%r9
  8004201cb0:	00 00 00 
  8004201cb3:	41 ff d1             	callq  *%r9
                addr, len, mmap->type);

        if(mmap->type > 5 || mmap->type < 1)
  8004201cb6:	48 8b 45 c0          	mov    -0x40(%rbp),%rax
  8004201cba:	8b 40 14             	mov    0x14(%rax),%eax
  8004201cbd:	83 f8 05             	cmp    $0x5,%eax
  8004201cc0:	77 0b                	ja     8004201ccd <multiboot_read+0x17a>
  8004201cc2:	48 8b 45 c0          	mov    -0x40(%rbp),%rax
  8004201cc6:	8b 40 14             	mov    0x14(%rax),%eax
  8004201cc9:	85 c0                	test   %eax,%eax
  8004201ccb:	75 0b                	jne    8004201cd8 <multiboot_read+0x185>
        	mmap->type = MB_TYPE_RESERVED;
  8004201ccd:	48 8b 45 c0          	mov    -0x40(%rbp),%rax
  8004201cd1:	c7 40 14 02 00 00 00 	movl   $0x2,0x14(%rax)
       
        //Insert into the sorted list
        int j = 0;
  8004201cd8:	c7 45 e8 00 00 00 00 	movl   $0x0,-0x18(%rbp)
        for(;j<i;j++) {
  8004201cdf:	e9 85 00 00 00       	jmpq   8004201d69 <multiboot_read+0x216>
        	memory_map_t* this = mmap_list[j];
  8004201ce4:	48 8b 45 c8          	mov    -0x38(%rbp),%rax
  8004201ce8:	8b 55 e8             	mov    -0x18(%rbp),%edx
  8004201ceb:	48 63 d2             	movslq %edx,%rdx
  8004201cee:	48 8b 04 d0          	mov    (%rax,%rdx,8),%rax
  8004201cf2:	48 89 45 a8          	mov    %rax,-0x58(%rbp)
        	uint64_t this_addr = APPEND_HILO(this->base_addr_high, this->base_addr_low);
  8004201cf6:	48 8b 45 a8          	mov    -0x58(%rbp),%rax
  8004201cfa:	8b 40 08             	mov    0x8(%rax),%eax
  8004201cfd:	89 c0                	mov    %eax,%eax
  8004201cff:	48 89 c2             	mov    %rax,%rdx
  8004201d02:	48 c1 e2 20          	shl    $0x20,%rdx
  8004201d06:	48 8b 45 a8          	mov    -0x58(%rbp),%rax
  8004201d0a:	8b 40 04             	mov    0x4(%rax),%eax
  8004201d0d:	89 c0                	mov    %eax,%eax
  8004201d0f:	48 01 d0             	add    %rdx,%rax
  8004201d12:	48 89 45 a0          	mov    %rax,-0x60(%rbp)
        	if(this_addr > addr) {
  8004201d16:	48 8b 45 a0          	mov    -0x60(%rbp),%rax
  8004201d1a:	48 3b 45 b8          	cmp    -0x48(%rbp),%rax
  8004201d1e:	76 45                	jbe    8004201d65 <multiboot_read+0x212>
        		int last = i+1;
  8004201d20:	8b 45 ec             	mov    -0x14(%rbp),%eax
  8004201d23:	83 c0 01             	add    $0x1,%eax
  8004201d26:	89 45 e4             	mov    %eax,-0x1c(%rbp)
        		while(last != j) {
  8004201d29:	eb 30                	jmp    8004201d5b <multiboot_read+0x208>
        			*(mmap_list + last) = *(mmap_list + last - 1);
  8004201d2b:	48 8b 45 c8          	mov    -0x38(%rbp),%rax
  8004201d2f:	8b 55 e4             	mov    -0x1c(%rbp),%edx
  8004201d32:	48 63 d2             	movslq %edx,%rdx
  8004201d35:	48 c1 e2 03          	shl    $0x3,%rdx
  8004201d39:	48 01 c2             	add    %rax,%rdx
  8004201d3c:	48 8b 45 c8          	mov    -0x38(%rbp),%rax
  8004201d40:	8b 4d e4             	mov    -0x1c(%rbp),%ecx
  8004201d43:	48 63 c9             	movslq %ecx,%rcx
  8004201d46:	48 83 e9 01          	sub    $0x1,%rcx
  8004201d4a:	48 c1 e1 03          	shl    $0x3,%rcx
  8004201d4e:	48 01 c8             	add    %rcx,%rax
  8004201d51:	48 8b 00             	mov    (%rax),%rax
  8004201d54:	48 89 02             	mov    %rax,(%rdx)
        			last--;
  8004201d57:	83 6d e4 01          	subl   $0x1,-0x1c(%rbp)
        for(;j<i;j++) {
        	memory_map_t* this = mmap_list[j];
        	uint64_t this_addr = APPEND_HILO(this->base_addr_high, this->base_addr_low);
        	if(this_addr > addr) {
        		int last = i+1;
        		while(last != j) {
  8004201d5b:	8b 45 e4             	mov    -0x1c(%rbp),%eax
  8004201d5e:	3b 45 e8             	cmp    -0x18(%rbp),%eax
  8004201d61:	75 c8                	jne    8004201d2b <multiboot_read+0x1d8>
        			*(mmap_list + last) = *(mmap_list + last - 1);
        			last--;
        		}
        		break; 
  8004201d63:	eb 10                	jmp    8004201d75 <multiboot_read+0x222>
        if(mmap->type > 5 || mmap->type < 1)
        	mmap->type = MB_TYPE_RESERVED;
       
        //Insert into the sorted list
        int j = 0;
        for(;j<i;j++) {
  8004201d65:	83 45 e8 01          	addl   $0x1,-0x18(%rbp)
  8004201d69:	8b 45 e8             	mov    -0x18(%rbp),%eax
  8004201d6c:	3b 45 ec             	cmp    -0x14(%rbp),%eax
  8004201d6f:	0f 8c 6f ff ff ff    	jl     8004201ce4 <multiboot_read+0x191>
        			last--;
        		}
        		break; 
        	}
        }
        mmap_list[j] = mmap;  
  8004201d75:	48 8b 45 c8          	mov    -0x38(%rbp),%rax
  8004201d79:	8b 55 e8             	mov    -0x18(%rbp),%edx
  8004201d7c:	48 63 d2             	movslq %edx,%rdx
  8004201d7f:	48 8b 4d c0          	mov    -0x40(%rbp),%rcx
  8004201d83:	48 89 0c d0          	mov    %rcx,(%rax,%rdx,8)

	memory_map_t* mmap_base = (memory_map_t*)(uintptr_t)mbinfo->mmap_addr;
 	memory_map_t* mmap_list[mbinfo->mmap_length/ (sizeof(memory_map_t))];

    cprintf("\ne820 MEMORY MAP\n");
    for(i = 0; i < (mbinfo->mmap_length / (sizeof(memory_map_t))); i++) {
  8004201d87:	83 45 ec 01          	addl   $0x1,-0x14(%rbp)
  8004201d8b:	8b 45 ec             	mov    -0x14(%rbp),%eax
  8004201d8e:	48 63 c8             	movslq %eax,%rcx
  8004201d91:	48 8b 85 58 ff ff ff 	mov    -0xa8(%rbp),%rax
  8004201d98:	8b 40 2c             	mov    0x2c(%rax),%eax
  8004201d9b:	89 85 44 ff ff ff    	mov    %eax,-0xbc(%rbp)
  8004201da1:	ba ab aa aa aa       	mov    $0xaaaaaaab,%edx
  8004201da6:	8b 85 44 ff ff ff    	mov    -0xbc(%rbp),%eax
  8004201dac:	f7 e2                	mul    %edx
  8004201dae:	89 d0                	mov    %edx,%eax
  8004201db0:	c1 e8 04             	shr    $0x4,%eax
  8004201db3:	89 c0                	mov    %eax,%eax
  8004201db5:	48 39 c1             	cmp    %rax,%rcx
  8004201db8:	0f 82 67 fe ff ff    	jb     8004201c25 <multiboot_read+0xd2>
        		break; 
        	}
        }
        mmap_list[j] = mmap;  
    }
    cprintf("\n");
  8004201dbe:	48 bf cf 73 21 04 80 	movabs $0x80042173cf,%rdi
  8004201dc5:	00 00 00 
  8004201dc8:	b8 00 00 00 00       	mov    $0x0,%eax
  8004201dcd:	48 ba f2 89 20 04 80 	movabs $0x80042089f2,%rdx
  8004201dd4:	00 00 00 
  8004201dd7:	ff d2                	callq  *%rdx
    
    // Sanitize the list
	for(i=1;i < (mbinfo->mmap_length / (sizeof(memory_map_t))); i++) {
  8004201dd9:	c7 45 ec 01 00 00 00 	movl   $0x1,-0x14(%rbp)
  8004201de0:	e9 93 01 00 00       	jmpq   8004201f78 <multiboot_read+0x425>
		memory_map_t* prev = mmap_list[i-1];
  8004201de5:	8b 45 ec             	mov    -0x14(%rbp),%eax
  8004201de8:	8d 50 ff             	lea    -0x1(%rax),%edx
  8004201deb:	48 8b 45 c8          	mov    -0x38(%rbp),%rax
  8004201def:	48 63 d2             	movslq %edx,%rdx
  8004201df2:	48 8b 04 d0          	mov    (%rax,%rdx,8),%rax
  8004201df6:	48 89 45 98          	mov    %rax,-0x68(%rbp)
		memory_map_t* this = mmap_list[i];
  8004201dfa:	48 8b 45 c8          	mov    -0x38(%rbp),%rax
  8004201dfe:	8b 55 ec             	mov    -0x14(%rbp),%edx
  8004201e01:	48 63 d2             	movslq %edx,%rdx
  8004201e04:	48 8b 04 d0          	mov    (%rax,%rdx,8),%rax
  8004201e08:	48 89 45 90          	mov    %rax,-0x70(%rbp)

		uint64_t this_addr = APPEND_HILO(this->base_addr_high, this->base_addr_low);
  8004201e0c:	48 8b 45 90          	mov    -0x70(%rbp),%rax
  8004201e10:	8b 40 08             	mov    0x8(%rax),%eax
  8004201e13:	89 c0                	mov    %eax,%eax
  8004201e15:	48 89 c2             	mov    %rax,%rdx
  8004201e18:	48 c1 e2 20          	shl    $0x20,%rdx
  8004201e1c:	48 8b 45 90          	mov    -0x70(%rbp),%rax
  8004201e20:	8b 40 04             	mov    0x4(%rax),%eax
  8004201e23:	89 c0                	mov    %eax,%eax
  8004201e25:	48 01 d0             	add    %rdx,%rax
  8004201e28:	48 89 45 88          	mov    %rax,-0x78(%rbp)
        uint64_t prev_addr = APPEND_HILO(prev->base_addr_high, prev->base_addr_low);
  8004201e2c:	48 8b 45 98          	mov    -0x68(%rbp),%rax
  8004201e30:	8b 40 08             	mov    0x8(%rax),%eax
  8004201e33:	89 c0                	mov    %eax,%eax
  8004201e35:	48 89 c2             	mov    %rax,%rdx
  8004201e38:	48 c1 e2 20          	shl    $0x20,%rdx
  8004201e3c:	48 8b 45 98          	mov    -0x68(%rbp),%rax
  8004201e40:	8b 40 04             	mov    0x4(%rax),%eax
  8004201e43:	89 c0                	mov    %eax,%eax
  8004201e45:	48 01 d0             	add    %rdx,%rax
  8004201e48:	48 89 45 80          	mov    %rax,-0x80(%rbp)
        uint64_t prev_length = APPEND_HILO(prev->length_high, prev->length_low);
  8004201e4c:	48 8b 45 98          	mov    -0x68(%rbp),%rax
  8004201e50:	8b 40 10             	mov    0x10(%rax),%eax
  8004201e53:	89 c0                	mov    %eax,%eax
  8004201e55:	48 89 c2             	mov    %rax,%rdx
  8004201e58:	48 c1 e2 20          	shl    $0x20,%rdx
  8004201e5c:	48 8b 45 98          	mov    -0x68(%rbp),%rax
  8004201e60:	8b 40 0c             	mov    0xc(%rax),%eax
  8004201e63:	89 c0                	mov    %eax,%eax
  8004201e65:	48 01 d0             	add    %rdx,%rax
  8004201e68:	48 89 85 78 ff ff ff 	mov    %rax,-0x88(%rbp)
		uint64_t this_length = APPEND_HILO(this->length_high, this->length_low);
  8004201e6f:	48 8b 45 90          	mov    -0x70(%rbp),%rax
  8004201e73:	8b 40 10             	mov    0x10(%rax),%eax
  8004201e76:	89 c0                	mov    %eax,%eax
  8004201e78:	48 89 c2             	mov    %rax,%rdx
  8004201e7b:	48 c1 e2 20          	shl    $0x20,%rdx
  8004201e7f:	48 8b 45 90          	mov    -0x70(%rbp),%rax
  8004201e83:	8b 40 0c             	mov    0xc(%rax),%eax
  8004201e86:	89 c0                	mov    %eax,%eax
  8004201e88:	48 01 d0             	add    %rdx,%rax
  8004201e8b:	48 89 85 70 ff ff ff 	mov    %rax,-0x90(%rbp)

		// Merge adjacent regions with same type
		if(prev_addr + prev_length == this_addr && prev->type == this->type) {
  8004201e92:	48 8b 85 78 ff ff ff 	mov    -0x88(%rbp),%rax
  8004201e99:	48 8b 55 80          	mov    -0x80(%rbp),%rdx
  8004201e9d:	48 01 d0             	add    %rdx,%rax
  8004201ea0:	48 3b 45 88          	cmp    -0x78(%rbp),%rax
  8004201ea4:	75 7c                	jne    8004201f22 <multiboot_read+0x3cf>
  8004201ea6:	48 8b 45 98          	mov    -0x68(%rbp),%rax
  8004201eaa:	8b 50 14             	mov    0x14(%rax),%edx
  8004201ead:	48 8b 45 90          	mov    -0x70(%rbp),%rax
  8004201eb1:	8b 40 14             	mov    0x14(%rax),%eax
  8004201eb4:	39 c2                	cmp    %eax,%edx
  8004201eb6:	75 6a                	jne    8004201f22 <multiboot_read+0x3cf>
			this->length_low = (uint32_t)prev_length + this_length;
  8004201eb8:	48 8b 85 78 ff ff ff 	mov    -0x88(%rbp),%rax
  8004201ebf:	89 c2                	mov    %eax,%edx
  8004201ec1:	48 8b 85 70 ff ff ff 	mov    -0x90(%rbp),%rax
  8004201ec8:	01 c2                	add    %eax,%edx
  8004201eca:	48 8b 45 90          	mov    -0x70(%rbp),%rax
  8004201ece:	89 50 0c             	mov    %edx,0xc(%rax)
			this->length_high = (uint32_t)((prev_length + this_length)>>32);
  8004201ed1:	48 8b 85 70 ff ff ff 	mov    -0x90(%rbp),%rax
  8004201ed8:	48 8b 95 78 ff ff ff 	mov    -0x88(%rbp),%rdx
  8004201edf:	48 01 d0             	add    %rdx,%rax
  8004201ee2:	48 c1 e8 20          	shr    $0x20,%rax
  8004201ee6:	89 c2                	mov    %eax,%edx
  8004201ee8:	48 8b 45 90          	mov    -0x70(%rbp),%rax
  8004201eec:	89 50 10             	mov    %edx,0x10(%rax)
			this->base_addr_low = prev->base_addr_low;
  8004201eef:	48 8b 45 98          	mov    -0x68(%rbp),%rax
  8004201ef3:	8b 50 04             	mov    0x4(%rax),%edx
  8004201ef6:	48 8b 45 90          	mov    -0x70(%rbp),%rax
  8004201efa:	89 50 04             	mov    %edx,0x4(%rax)
			this->base_addr_high = prev->base_addr_high;
  8004201efd:	48 8b 45 98          	mov    -0x68(%rbp),%rax
  8004201f01:	8b 50 08             	mov    0x8(%rax),%edx
  8004201f04:	48 8b 45 90          	mov    -0x70(%rbp),%rax
  8004201f08:	89 50 08             	mov    %edx,0x8(%rax)
			mmap_list[i-1] = NULL;
  8004201f0b:	8b 45 ec             	mov    -0x14(%rbp),%eax
  8004201f0e:	8d 50 ff             	lea    -0x1(%rax),%edx
  8004201f11:	48 8b 45 c8          	mov    -0x38(%rbp),%rax
  8004201f15:	48 63 d2             	movslq %edx,%rdx
  8004201f18:	48 c7 04 d0 00 00 00 	movq   $0x0,(%rax,%rdx,8)
  8004201f1f:	00 
  8004201f20:	eb 52                	jmp    8004201f74 <multiboot_read+0x421>
		} else if(prev_addr + prev_length > this_addr) {
  8004201f22:	48 8b 85 78 ff ff ff 	mov    -0x88(%rbp),%rax
  8004201f29:	48 8b 55 80          	mov    -0x80(%rbp),%rdx
  8004201f2d:	48 01 d0             	add    %rdx,%rax
  8004201f30:	48 3b 45 88          	cmp    -0x78(%rbp),%rax
  8004201f34:	76 3e                	jbe    8004201f74 <multiboot_read+0x421>
			//Overlapping regions
			uint32_t type = restrictive_type(prev->type, this->type);
  8004201f36:	48 8b 45 90          	mov    -0x70(%rbp),%rax
  8004201f3a:	8b 50 14             	mov    0x14(%rax),%edx
  8004201f3d:	48 8b 45 98          	mov    -0x68(%rbp),%rax
  8004201f41:	8b 40 14             	mov    0x14(%rax),%eax
  8004201f44:	89 d6                	mov    %edx,%esi
  8004201f46:	89 c7                	mov    %eax,%edi
  8004201f48:	48 b8 b3 1a 20 04 80 	movabs $0x8004201ab3,%rax
  8004201f4f:	00 00 00 
  8004201f52:	ff d0                	callq  *%rax
  8004201f54:	89 85 6c ff ff ff    	mov    %eax,-0x94(%rbp)
			prev->type = type;
  8004201f5a:	48 8b 45 98          	mov    -0x68(%rbp),%rax
  8004201f5e:	8b 95 6c ff ff ff    	mov    -0x94(%rbp),%edx
  8004201f64:	89 50 14             	mov    %edx,0x14(%rax)
			this->type = type;
  8004201f67:	48 8b 45 90          	mov    -0x70(%rbp),%rax
  8004201f6b:	8b 95 6c ff ff ff    	mov    -0x94(%rbp),%edx
  8004201f71:	89 50 14             	mov    %edx,0x14(%rax)
        mmap_list[j] = mmap;  
    }
    cprintf("\n");
    
    // Sanitize the list
	for(i=1;i < (mbinfo->mmap_length / (sizeof(memory_map_t))); i++) {
  8004201f74:	83 45 ec 01          	addl   $0x1,-0x14(%rbp)
  8004201f78:	8b 45 ec             	mov    -0x14(%rbp),%eax
  8004201f7b:	48 63 c8             	movslq %eax,%rcx
  8004201f7e:	48 8b 85 58 ff ff ff 	mov    -0xa8(%rbp),%rax
  8004201f85:	8b 40 2c             	mov    0x2c(%rax),%eax
  8004201f88:	89 85 44 ff ff ff    	mov    %eax,-0xbc(%rbp)
  8004201f8e:	ba ab aa aa aa       	mov    $0xaaaaaaab,%edx
  8004201f93:	8b 85 44 ff ff ff    	mov    -0xbc(%rbp),%eax
  8004201f99:	f7 e2                	mul    %edx
  8004201f9b:	89 d0                	mov    %edx,%eax
  8004201f9d:	c1 e8 04             	shr    $0x4,%eax
  8004201fa0:	89 c0                	mov    %eax,%eax
  8004201fa2:	48 39 c1             	cmp    %rax,%rcx
  8004201fa5:	0f 82 3a fe ff ff    	jb     8004201de5 <multiboot_read+0x292>
			prev->type = type;
			this->type = type;
		}
	}

	for(i=0;i < (mbinfo->mmap_length / (sizeof(memory_map_t))); i++) {
  8004201fab:	c7 45 ec 00 00 00 00 	movl   $0x0,-0x14(%rbp)
  8004201fb2:	e9 dc 00 00 00       	jmpq   8004202093 <multiboot_read+0x540>
		memory_map_t* mmap = mmap_list[i];
  8004201fb7:	48 8b 45 c8          	mov    -0x38(%rbp),%rax
  8004201fbb:	8b 55 ec             	mov    -0x14(%rbp),%edx
  8004201fbe:	48 63 d2             	movslq %edx,%rdx
  8004201fc1:	48 8b 04 d0          	mov    (%rax,%rdx,8),%rax
  8004201fc5:	48 89 85 60 ff ff ff 	mov    %rax,-0xa0(%rbp)
		if(mmap) {
  8004201fcc:	48 83 bd 60 ff ff ff 	cmpq   $0x0,-0xa0(%rbp)
  8004201fd3:	00 
  8004201fd4:	0f 84 b5 00 00 00    	je     800420208f <multiboot_read+0x53c>
			if(mmap->type == MB_TYPE_USABLE || mmap->type == MB_TYPE_ACPI_RECLM) {
  8004201fda:	48 8b 85 60 ff ff ff 	mov    -0xa0(%rbp),%rax
  8004201fe1:	8b 40 14             	mov    0x14(%rax),%eax
  8004201fe4:	83 f8 01             	cmp    $0x1,%eax
  8004201fe7:	74 13                	je     8004201ffc <multiboot_read+0x4a9>
  8004201fe9:	48 8b 85 60 ff ff ff 	mov    -0xa0(%rbp),%rax
  8004201ff0:	8b 40 14             	mov    0x14(%rax),%eax
  8004201ff3:	83 f8 03             	cmp    $0x3,%eax
  8004201ff6:	0f 85 93 00 00 00    	jne    800420208f <multiboot_read+0x53c>
				if(mmap->base_addr_low < 0x100000 && mmap->base_addr_high == 0)
  8004201ffc:	48 8b 85 60 ff ff ff 	mov    -0xa0(%rbp),%rax
  8004202003:	8b 40 04             	mov    0x4(%rax),%eax
  8004202006:	3d ff ff 0f 00       	cmp    $0xfffff,%eax
  800420200b:	77 49                	ja     8004202056 <multiboot_read+0x503>
  800420200d:	48 8b 85 60 ff ff ff 	mov    -0xa0(%rbp),%rax
  8004202014:	8b 40 08             	mov    0x8(%rax),%eax
  8004202017:	85 c0                	test   %eax,%eax
  8004202019:	75 3b                	jne    8004202056 <multiboot_read+0x503>
					*basemem += APPEND_HILO(mmap->length_high, mmap->length_low);
  800420201b:	48 8b 85 50 ff ff ff 	mov    -0xb0(%rbp),%rax
  8004202022:	48 8b 10             	mov    (%rax),%rdx
  8004202025:	48 8b 85 60 ff ff ff 	mov    -0xa0(%rbp),%rax
  800420202c:	8b 40 10             	mov    0x10(%rax),%eax
  800420202f:	89 c0                	mov    %eax,%eax
  8004202031:	48 89 c1             	mov    %rax,%rcx
  8004202034:	48 c1 e1 20          	shl    $0x20,%rcx
  8004202038:	48 8b 85 60 ff ff ff 	mov    -0xa0(%rbp),%rax
  800420203f:	8b 40 0c             	mov    0xc(%rax),%eax
  8004202042:	89 c0                	mov    %eax,%eax
  8004202044:	48 01 c8             	add    %rcx,%rax
  8004202047:	48 01 c2             	add    %rax,%rdx
  800420204a:	48 8b 85 50 ff ff ff 	mov    -0xb0(%rbp),%rax
  8004202051:	48 89 10             	mov    %rdx,(%rax)
  8004202054:	eb 39                	jmp    800420208f <multiboot_read+0x53c>
				else
					*extmem += APPEND_HILO(mmap->length_high, mmap->length_low);
  8004202056:	48 8b 85 48 ff ff ff 	mov    -0xb8(%rbp),%rax
  800420205d:	48 8b 10             	mov    (%rax),%rdx
  8004202060:	48 8b 85 60 ff ff ff 	mov    -0xa0(%rbp),%rax
  8004202067:	8b 40 10             	mov    0x10(%rax),%eax
  800420206a:	89 c0                	mov    %eax,%eax
  800420206c:	48 89 c1             	mov    %rax,%rcx
  800420206f:	48 c1 e1 20          	shl    $0x20,%rcx
  8004202073:	48 8b 85 60 ff ff ff 	mov    -0xa0(%rbp),%rax
  800420207a:	8b 40 0c             	mov    0xc(%rax),%eax
  800420207d:	89 c0                	mov    %eax,%eax
  800420207f:	48 01 c8             	add    %rcx,%rax
  8004202082:	48 01 c2             	add    %rax,%rdx
  8004202085:	48 8b 85 48 ff ff ff 	mov    -0xb8(%rbp),%rax
  800420208c:	48 89 10             	mov    %rdx,(%rax)
			prev->type = type;
			this->type = type;
		}
	}

	for(i=0;i < (mbinfo->mmap_length / (sizeof(memory_map_t))); i++) {
  800420208f:	83 45 ec 01          	addl   $0x1,-0x14(%rbp)
  8004202093:	8b 45 ec             	mov    -0x14(%rbp),%eax
  8004202096:	48 63 c8             	movslq %eax,%rcx
  8004202099:	48 8b 85 58 ff ff ff 	mov    -0xa8(%rbp),%rax
  80042020a0:	8b 40 2c             	mov    0x2c(%rax),%eax
  80042020a3:	89 85 44 ff ff ff    	mov    %eax,-0xbc(%rbp)
  80042020a9:	ba ab aa aa aa       	mov    $0xaaaaaaab,%edx
  80042020ae:	8b 85 44 ff ff ff    	mov    -0xbc(%rbp),%eax
  80042020b4:	f7 e2                	mul    %edx
  80042020b6:	89 d0                	mov    %edx,%eax
  80042020b8:	c1 e8 04             	shr    $0x4,%eax
  80042020bb:	89 c0                	mov    %eax,%eax
  80042020bd:	48 39 c1             	cmp    %rax,%rcx
  80042020c0:	0f 82 f1 fe ff ff    	jb     8004201fb7 <multiboot_read+0x464>
  80042020c6:	48 89 dc             	mov    %rbx,%rsp
				else
					*extmem += APPEND_HILO(mmap->length_high, mmap->length_low);
			}
		}
	}
}
  80042020c9:	48 8b 5d f8          	mov    -0x8(%rbp),%rbx
  80042020cd:	c9                   	leaveq 
  80042020ce:	c3                   	retq   

00000080042020cf <i386_detect_memory>:

static void
i386_detect_memory(void)
{
  80042020cf:	55                   	push   %rbp
  80042020d0:	48 89 e5             	mov    %rsp,%rbp
  80042020d3:	48 83 ec 30          	sub    $0x30,%rsp
	size_t npages_extmem;
	size_t basemem = 0;
  80042020d7:	48 c7 45 d8 00 00 00 	movq   $0x0,-0x28(%rbp)
  80042020de:	00 
	size_t extmem = 0;
  80042020df:	48 c7 45 d0 00 00 00 	movq   $0x0,-0x30(%rbp)
  80042020e6:	00 

	// Check if the bootloader passed us a multiboot structure
	extern char multiboot_info[];
	uintptr_t* mbp = (uintptr_t*)multiboot_info;
  80042020e7:	48 b8 00 70 10 00 00 	movabs $0x107000,%rax
  80042020ee:	00 00 00 
  80042020f1:	48 89 45 f0          	mov    %rax,-0x10(%rbp)
	multiboot_info_t * mbinfo = (multiboot_info_t*)*mbp;
  80042020f5:	48 8b 45 f0          	mov    -0x10(%rbp),%rax
  80042020f9:	48 8b 00             	mov    (%rax),%rax
  80042020fc:	48 89 45 e8          	mov    %rax,-0x18(%rbp)
	
	if(mbinfo && (mbinfo->flags & MB_FLAG_MMAP)) {
  8004202100:	48 83 7d e8 00       	cmpq   $0x0,-0x18(%rbp)
  8004202105:	74 2d                	je     8004202134 <i386_detect_memory+0x65>
  8004202107:	48 8b 45 e8          	mov    -0x18(%rbp),%rax
  800420210b:	8b 00                	mov    (%rax),%eax
  800420210d:	83 e0 40             	and    $0x40,%eax
  8004202110:	85 c0                	test   %eax,%eax
  8004202112:	74 20                	je     8004202134 <i386_detect_memory+0x65>
		multiboot_read(mbinfo, &basemem, &extmem);
  8004202114:	48 8d 55 d0          	lea    -0x30(%rbp),%rdx
  8004202118:	48 8d 4d d8          	lea    -0x28(%rbp),%rcx
  800420211c:	48 8b 45 e8          	mov    -0x18(%rbp),%rax
  8004202120:	48 89 ce             	mov    %rcx,%rsi
  8004202123:	48 89 c7             	mov    %rax,%rdi
  8004202126:	48 b8 53 1b 20 04 80 	movabs $0x8004201b53,%rax
  800420212d:	00 00 00 
  8004202130:	ff d0                	callq  *%rax
  8004202132:	eb 34                	jmp    8004202168 <i386_detect_memory+0x99>
	} else {
		basemem = (nvram_read(NVRAM_BASELO) * 1024);
  8004202134:	bf 15 00 00 00       	mov    $0x15,%edi
  8004202139:	48 b8 14 1b 20 04 80 	movabs $0x8004201b14,%rax
  8004202140:	00 00 00 
  8004202143:	ff d0                	callq  *%rax
  8004202145:	c1 e0 0a             	shl    $0xa,%eax
  8004202148:	48 98                	cltq   
  800420214a:	48 89 45 d8          	mov    %rax,-0x28(%rbp)
		extmem = (nvram_read(NVRAM_EXTLO) * 1024);
  800420214e:	bf 17 00 00 00       	mov    $0x17,%edi
  8004202153:	48 b8 14 1b 20 04 80 	movabs $0x8004201b14,%rax
  800420215a:	00 00 00 
  800420215d:	ff d0                	callq  *%rax
  800420215f:	c1 e0 0a             	shl    $0xa,%eax
  8004202162:	48 98                	cltq   
  8004202164:	48 89 45 d0          	mov    %rax,-0x30(%rbp)
	}
    
	assert(basemem);
  8004202168:	48 8b 45 d8          	mov    -0x28(%rbp),%rax
  800420216c:	48 85 c0             	test   %rax,%rax
  800420216f:	75 35                	jne    80042021a6 <i386_detect_memory+0xd7>
  8004202171:	48 b9 d1 73 21 04 80 	movabs $0x80042173d1,%rcx
  8004202178:	00 00 00 
  800420217b:	48 ba d9 73 21 04 80 	movabs $0x80042173d9,%rdx
  8004202182:	00 00 00 
  8004202185:	be 89 00 00 00       	mov    $0x89,%esi
  800420218a:	48 bf ee 73 21 04 80 	movabs $0x80042173ee,%rdi
  8004202191:	00 00 00 
  8004202194:	b8 00 00 00 00       	mov    $0x0,%eax
  8004202199:	49 b8 f2 04 20 04 80 	movabs $0x80042004f2,%r8
  80042021a0:	00 00 00 
  80042021a3:	41 ff d0             	callq  *%r8

	npages_basemem = basemem / PGSIZE;
  80042021a6:	48 8b 45 d8          	mov    -0x28(%rbp),%rax
  80042021aa:	48 89 c2             	mov    %rax,%rdx
  80042021ad:	48 c1 ea 0c          	shr    $0xc,%rdx
  80042021b1:	48 b8 30 b2 63 04 80 	movabs $0x800463b230,%rax
  80042021b8:	00 00 00 
  80042021bb:	48 89 10             	mov    %rdx,(%rax)
	npages_extmem = extmem / PGSIZE;
  80042021be:	48 8b 45 d0          	mov    -0x30(%rbp),%rax
  80042021c2:	48 c1 e8 0c          	shr    $0xc,%rax
  80042021c6:	48 89 45 f8          	mov    %rax,-0x8(%rbp)
	
	// Calculate the number of physical pages available in both base
	// and extended memory.
	if (npages_extmem)
  80042021ca:	48 83 7d f8 00       	cmpq   $0x0,-0x8(%rbp)
  80042021cf:	74 1a                	je     80042021eb <i386_detect_memory+0x11c>
		npages = (EXTPHYSMEM / PGSIZE) + npages_extmem;
  80042021d1:	48 8b 45 f8          	mov    -0x8(%rbp),%rax
  80042021d5:	48 8d 90 00 01 00 00 	lea    0x100(%rax),%rdx
  80042021dc:	48 b8 e0 c7 63 04 80 	movabs $0x800463c7e0,%rax
  80042021e3:	00 00 00 
  80042021e6:	48 89 10             	mov    %rdx,(%rax)
  80042021e9:	eb 1a                	jmp    8004202205 <i386_detect_memory+0x136>
	else
		npages = npages_basemem;
  80042021eb:	48 b8 30 b2 63 04 80 	movabs $0x800463b230,%rax
  80042021f2:	00 00 00 
  80042021f5:	48 8b 10             	mov    (%rax),%rdx
  80042021f8:	48 b8 e0 c7 63 04 80 	movabs $0x800463c7e0,%rax
  80042021ff:	00 00 00 
  8004202202:	48 89 10             	mov    %rdx,(%rax)

	if(nvram_read(NVRAM_EXTLO) == 0xffff) {
  8004202205:	bf 17 00 00 00       	mov    $0x17,%edi
  800420220a:	48 b8 14 1b 20 04 80 	movabs $0x8004201b14,%rax
  8004202211:	00 00 00 
  8004202214:	ff d0                	callq  *%rax
  8004202216:	3d ff ff 00 00       	cmp    $0xffff,%eax
  800420221b:	75 2c                	jne    8004202249 <i386_detect_memory+0x17a>
		// EXTMEM > 16M in blocks of 64k
		size_t pextmem = nvram_read(NVRAM_EXTGT16LO) * (64 * 1024);
  800420221d:	bf 34 00 00 00       	mov    $0x34,%edi
  8004202222:	48 b8 14 1b 20 04 80 	movabs $0x8004201b14,%rax
  8004202229:	00 00 00 
  800420222c:	ff d0                	callq  *%rax
  800420222e:	c1 e0 10             	shl    $0x10,%eax
  8004202231:	48 98                	cltq   
  8004202233:	48 89 45 e0          	mov    %rax,-0x20(%rbp)
		npages_extmem = ((16 * 1024 * 1024) + pextmem - (1 * 1024 * 1024)) / PGSIZE;
  8004202237:	48 8b 45 e0          	mov    -0x20(%rbp),%rax
  800420223b:	48 05 00 00 f0 00    	add    $0xf00000,%rax
  8004202241:	48 c1 e8 0c          	shr    $0xc,%rax
  8004202245:	48 89 45 f8          	mov    %rax,-0x8(%rbp)
	}
	
	// Calculate the number of physical pages available in both base
	// and extended memory.
	if (npages_extmem)
  8004202249:	48 83 7d f8 00       	cmpq   $0x0,-0x8(%rbp)
  800420224e:	74 1a                	je     800420226a <i386_detect_memory+0x19b>
		npages = (EXTPHYSMEM / PGSIZE) + npages_extmem;
  8004202250:	48 8b 45 f8          	mov    -0x8(%rbp),%rax
  8004202254:	48 8d 90 00 01 00 00 	lea    0x100(%rax),%rdx
  800420225b:	48 b8 e0 c7 63 04 80 	movabs $0x800463c7e0,%rax
  8004202262:	00 00 00 
  8004202265:	48 89 10             	mov    %rdx,(%rax)
  8004202268:	eb 1a                	jmp    8004202284 <i386_detect_memory+0x1b5>
	else
		npages = npages_basemem;
  800420226a:	48 b8 30 b2 63 04 80 	movabs $0x800463b230,%rax
  8004202271:	00 00 00 
  8004202274:	48 8b 10             	mov    (%rax),%rdx
  8004202277:	48 b8 e0 c7 63 04 80 	movabs $0x800463c7e0,%rax
  800420227e:	00 00 00 
  8004202281:	48 89 10             	mov    %rdx,(%rax)

	cprintf("Physical memory: %uM available, base = %uK, extended = %uK, npages = %d\n",
  8004202284:	48 b8 e0 c7 63 04 80 	movabs $0x800463c7e0,%rax
  800420228b:	00 00 00 
  800420228e:	48 8b 30             	mov    (%rax),%rsi
		npages * PGSIZE / (1024 * 1024),
		npages_basemem * PGSIZE / 1024,
		npages_extmem * PGSIZE / 1024,
  8004202291:	48 8b 45 f8          	mov    -0x8(%rbp),%rax
  8004202295:	48 c1 e0 0c          	shl    $0xc,%rax
	if (npages_extmem)
		npages = (EXTPHYSMEM / PGSIZE) + npages_extmem;
	else
		npages = npages_basemem;

	cprintf("Physical memory: %uM available, base = %uK, extended = %uK, npages = %d\n",
  8004202299:	48 89 c1             	mov    %rax,%rcx
  800420229c:	48 c1 e9 0a          	shr    $0xa,%rcx
		npages * PGSIZE / (1024 * 1024),
		npages_basemem * PGSIZE / 1024,
  80042022a0:	48 b8 30 b2 63 04 80 	movabs $0x800463b230,%rax
  80042022a7:	00 00 00 
  80042022aa:	48 8b 00             	mov    (%rax),%rax
  80042022ad:	48 c1 e0 0c          	shl    $0xc,%rax
	if (npages_extmem)
		npages = (EXTPHYSMEM / PGSIZE) + npages_extmem;
	else
		npages = npages_basemem;

	cprintf("Physical memory: %uM available, base = %uK, extended = %uK, npages = %d\n",
  80042022b1:	48 89 c2             	mov    %rax,%rdx
  80042022b4:	48 c1 ea 0a          	shr    $0xa,%rdx
		npages * PGSIZE / (1024 * 1024),
  80042022b8:	48 b8 e0 c7 63 04 80 	movabs $0x800463c7e0,%rax
  80042022bf:	00 00 00 
  80042022c2:	48 8b 00             	mov    (%rax),%rax
  80042022c5:	48 c1 e0 0c          	shl    $0xc,%rax
	if (npages_extmem)
		npages = (EXTPHYSMEM / PGSIZE) + npages_extmem;
	else
		npages = npages_basemem;

	cprintf("Physical memory: %uM available, base = %uK, extended = %uK, npages = %d\n",
  80042022c9:	48 c1 e8 14          	shr    $0x14,%rax
  80042022cd:	49 89 f0             	mov    %rsi,%r8
  80042022d0:	48 89 c6             	mov    %rax,%rsi
  80042022d3:	48 bf 00 74 21 04 80 	movabs $0x8004217400,%rdi
  80042022da:	00 00 00 
  80042022dd:	b8 00 00 00 00       	mov    $0x0,%eax
  80042022e2:	49 b9 f2 89 20 04 80 	movabs $0x80042089f2,%r9
  80042022e9:	00 00 00 
  80042022ec:	41 ff d1             	callq  *%r9
		npages_basemem * PGSIZE / 1024,
		npages_extmem * PGSIZE / 1024,
		npages);
	
	//JOS is hardwired to support only 256M of physical memory
	if(npages > ((255 * 1024 * 1024)/PGSIZE)) {
  80042022ef:	48 b8 e0 c7 63 04 80 	movabs $0x800463c7e0,%rax
  80042022f6:	00 00 00 
  80042022f9:	48 8b 00             	mov    (%rax),%rax
  80042022fc:	48 3d 00 ff 00 00    	cmp    $0xff00,%rax
  8004202302:	76 44                	jbe    8004202348 <i386_detect_memory+0x279>
		npages = (255 * 1024 * 1024) / PGSIZE;
  8004202304:	48 b8 e0 c7 63 04 80 	movabs $0x800463c7e0,%rax
  800420230b:	00 00 00 
  800420230e:	48 c7 00 00 ff 00 00 	movq   $0xff00,(%rax)
		cprintf("Using only %uK of the available memory.\n", npages * PGSIZE/1024);
  8004202315:	48 b8 e0 c7 63 04 80 	movabs $0x800463c7e0,%rax
  800420231c:	00 00 00 
  800420231f:	48 8b 00             	mov    (%rax),%rax
  8004202322:	48 c1 e0 0c          	shl    $0xc,%rax
  8004202326:	48 c1 e8 0a          	shr    $0xa,%rax
  800420232a:	48 89 c6             	mov    %rax,%rsi
  800420232d:	48 bf 50 74 21 04 80 	movabs $0x8004217450,%rdi
  8004202334:	00 00 00 
  8004202337:	b8 00 00 00 00       	mov    $0x0,%eax
  800420233c:	48 ba f2 89 20 04 80 	movabs $0x80042089f2,%rdx
  8004202343:	00 00 00 
  8004202346:	ff d2                	callq  *%rdx
	}
}
  8004202348:	c9                   	leaveq 
  8004202349:	c3                   	retq   

000000800420234a <boot_alloc>:
// If we're out of memory, boot_alloc should panic.
// This function may ONLY be used during initialization,
// before the page_free_list list has been set up.
static void *
boot_alloc(uint32_t n)
{
  800420234a:	55                   	push   %rbp
  800420234b:	48 89 e5             	mov    %rsp,%rbp
  800420234e:	48 83 ec 40          	sub    $0x40,%rsp
  8004202352:	89 7d cc             	mov    %edi,-0x34(%rbp)
	// Initialize nextfree if this is the first time.
	// 'end' is a magic symbol automatically generated by the linker,
	// which points to the end of the kernel's bss segment:
	// the first virtual address that the linker did *not* assign
	// to any kernel code or global variables.
	if (!nextfree) {
  8004202355:	48 b8 48 b2 63 04 80 	movabs $0x800463b248,%rax
  800420235c:	00 00 00 
  800420235f:	48 8b 00             	mov    (%rax),%rax
  8004202362:	48 85 c0             	test   %rax,%rax
  8004202365:	75 4e                	jne    80042023b5 <boot_alloc+0x6b>
        extern uintptr_t end_debug;
		nextfree = ROUNDUP((char *) end_debug, PGSIZE);
  8004202367:	48 c7 45 f0 00 10 00 	movq   $0x1000,-0x10(%rbp)
  800420236e:	00 
  800420236f:	48 b8 b8 c7 63 04 80 	movabs $0x800463c7b8,%rax
  8004202376:	00 00 00 
  8004202379:	48 8b 00             	mov    (%rax),%rax
  800420237c:	48 03 45 f0          	add    -0x10(%rbp),%rax
  8004202380:	48 83 e8 01          	sub    $0x1,%rax
  8004202384:	48 89 45 e8          	mov    %rax,-0x18(%rbp)
  8004202388:	48 8b 45 e8          	mov    -0x18(%rbp),%rax
  800420238c:	ba 00 00 00 00       	mov    $0x0,%edx
  8004202391:	48 f7 75 f0          	divq   -0x10(%rbp)
  8004202395:	48 89 d0             	mov    %rdx,%rax
  8004202398:	48 8b 55 e8          	mov    -0x18(%rbp),%rdx
  800420239c:	48 89 d1             	mov    %rdx,%rcx
  800420239f:	48 29 c1             	sub    %rax,%rcx
  80042023a2:	48 89 c8             	mov    %rcx,%rax
  80042023a5:	48 89 c2             	mov    %rax,%rdx
  80042023a8:	48 b8 48 b2 63 04 80 	movabs $0x800463b248,%rax
  80042023af:	00 00 00 
  80042023b2:	48 89 10             	mov    %rdx,(%rax)
	// nextfree.  Make sure nextfree is kept aligned
	// to a multiple of PGSIZE.
	//
	// LAB 2: Your code here.

	assert(nextfree!=NULL);
  80042023b5:	48 b8 48 b2 63 04 80 	movabs $0x800463b248,%rax
  80042023bc:	00 00 00 
  80042023bf:	48 8b 00             	mov    (%rax),%rax
  80042023c2:	48 85 c0             	test   %rax,%rax
  80042023c5:	75 35                	jne    80042023fc <boot_alloc+0xb2>
  80042023c7:	48 b9 79 74 21 04 80 	movabs $0x8004217479,%rcx
  80042023ce:	00 00 00 
  80042023d1:	48 ba d9 73 21 04 80 	movabs $0x80042173d9,%rdx
  80042023d8:	00 00 00 
  80042023db:	be de 00 00 00       	mov    $0xde,%esi
  80042023e0:	48 bf ee 73 21 04 80 	movabs $0x80042173ee,%rdi
  80042023e7:	00 00 00 
  80042023ea:	b8 00 00 00 00       	mov    $0x0,%eax
  80042023ef:	49 b8 f2 04 20 04 80 	movabs $0x80042004f2,%r8
  80042023f6:	00 00 00 
  80042023f9:	41 ff d0             	callq  *%r8
	if(n>0)
  80042023fc:	83 7d cc 00          	cmpl   $0x0,-0x34(%rbp)
  8004202400:	74 67                	je     8004202469 <boot_alloc+0x11f>
        {
                result=nextfree;
  8004202402:	48 b8 48 b2 63 04 80 	movabs $0x800463b248,%rax
  8004202409:	00 00 00 
  800420240c:	48 8b 00             	mov    (%rax),%rax
  800420240f:	48 89 45 f8          	mov    %rax,-0x8(%rbp)
                nextfree=ROUNDUP((char *)(nextfree+n), PGSIZE);
  8004202413:	48 c7 45 e0 00 10 00 	movq   $0x1000,-0x20(%rbp)
  800420241a:	00 
  800420241b:	48 b8 48 b2 63 04 80 	movabs $0x800463b248,%rax
  8004202422:	00 00 00 
  8004202425:	48 8b 10             	mov    (%rax),%rdx
  8004202428:	8b 45 cc             	mov    -0x34(%rbp),%eax
  800420242b:	48 01 d0             	add    %rdx,%rax
  800420242e:	48 03 45 e0          	add    -0x20(%rbp),%rax
  8004202432:	48 83 e8 01          	sub    $0x1,%rax
  8004202436:	48 89 45 d8          	mov    %rax,-0x28(%rbp)
  800420243a:	48 8b 45 d8          	mov    -0x28(%rbp),%rax
  800420243e:	ba 00 00 00 00       	mov    $0x0,%edx
  8004202443:	48 f7 75 e0          	divq   -0x20(%rbp)
  8004202447:	48 89 d0             	mov    %rdx,%rax
  800420244a:	48 8b 55 d8          	mov    -0x28(%rbp),%rdx
  800420244e:	48 89 d1             	mov    %rdx,%rcx
  8004202451:	48 29 c1             	sub    %rax,%rcx
  8004202454:	48 89 c8             	mov    %rcx,%rax
  8004202457:	48 89 c2             	mov    %rax,%rdx
  800420245a:	48 b8 48 b2 63 04 80 	movabs $0x800463b248,%rax
  8004202461:	00 00 00 
  8004202464:	48 89 10             	mov    %rdx,(%rax)
  8004202467:	eb 17                	jmp    8004202480 <boot_alloc+0x136>
        }
        else if(n==0)
  8004202469:	83 7d cc 00          	cmpl   $0x0,-0x34(%rbp)
  800420246d:	75 11                	jne    8004202480 <boot_alloc+0x136>
        {
                result=nextfree;
  800420246f:	48 b8 48 b2 63 04 80 	movabs $0x800463b248,%rax
  8004202476:	00 00 00 
  8004202479:	48 8b 00             	mov    (%rax),%rax
  800420247c:	48 89 45 f8          	mov    %rax,-0x8(%rbp)
        }
	return (void *)result;
  8004202480:	48 8b 45 f8          	mov    -0x8(%rbp),%rax


}
  8004202484:	c9                   	leaveq 
  8004202485:	c3                   	retq   

0000008004202486 <x64_vm_init>:
//
// From UTOP to ULIM, the user is allowed to read but not write.
// Above ULIM the user cannot read or write.
void
x64_vm_init(void)
{
  8004202486:	55                   	push   %rbp
  8004202487:	48 89 e5             	mov    %rsp,%rbp
  800420248a:	48 81 ec 90 00 00 00 	sub    $0x90,%rsp
	pml4e_t* pml4e;
	uint32_t cr0;
	uint64_t n;
	int r;
	struct Env *env;
	i386_detect_memory();
  8004202491:	48 b8 cf 20 20 04 80 	movabs $0x80042020cf,%rax
  8004202498:	00 00 00 
  800420249b:	ff d0                	callq  *%rax
	//panic("i386_vm_init: This function is not finished\n");
	//////////////////////////////////////////////////////////////////////
	// create initial page directory.
	//panic("x64_vm_init: this function is not finished\n");
	pml4e = boot_alloc(PGSIZE);
  800420249d:	bf 00 10 00 00       	mov    $0x1000,%edi
  80042024a2:	48 b8 4a 23 20 04 80 	movabs $0x800420234a,%rax
  80042024a9:	00 00 00 
  80042024ac:	ff d0                	callq  *%rax
  80042024ae:	48 89 45 f8          	mov    %rax,-0x8(%rbp)
	memset(pml4e, 0, PGSIZE);
  80042024b2:	48 8b 45 f8          	mov    -0x8(%rbp),%rax
  80042024b6:	ba 00 10 00 00       	mov    $0x1000,%edx
  80042024bb:	be 00 00 00 00       	mov    $0x0,%esi
  80042024c0:	48 89 c7             	mov    %rax,%rdi
  80042024c3:	48 b8 53 e6 20 04 80 	movabs $0x800420e653,%rax
  80042024ca:	00 00 00 
  80042024cd:	ff d0                	callq  *%rax
	boot_pml4e = pml4e;
  80042024cf:	48 b8 d8 c7 63 04 80 	movabs $0x800463c7d8,%rax
  80042024d6:	00 00 00 
  80042024d9:	48 8b 55 f8          	mov    -0x8(%rbp),%rdx
  80042024dd:	48 89 10             	mov    %rdx,(%rax)
	boot_cr3 = PADDR(pml4e);
  80042024e0:	48 8b 45 f8          	mov    -0x8(%rbp),%rax
  80042024e4:	48 89 45 f0          	mov    %rax,-0x10(%rbp)
  80042024e8:	48 b8 ff ff ff 03 80 	movabs $0x8003ffffff,%rax
  80042024ef:	00 00 00 
  80042024f2:	48 39 45 f0          	cmp    %rax,-0x10(%rbp)
  80042024f6:	77 32                	ja     800420252a <x64_vm_init+0xa4>
  80042024f8:	48 8b 45 f0          	mov    -0x10(%rbp),%rax
  80042024fc:	48 89 c1             	mov    %rax,%rcx
  80042024ff:	48 ba 88 74 21 04 80 	movabs $0x8004217488,%rdx
  8004202506:	00 00 00 
  8004202509:	be 06 01 00 00       	mov    $0x106,%esi
  800420250e:	48 bf ee 73 21 04 80 	movabs $0x80042173ee,%rdi
  8004202515:	00 00 00 
  8004202518:	b8 00 00 00 00       	mov    $0x0,%eax
  800420251d:	49 b8 f2 04 20 04 80 	movabs $0x80042004f2,%r8
  8004202524:	00 00 00 
  8004202527:	41 ff d0             	callq  *%r8
  800420252a:	48 b8 00 00 00 fc 7f 	movabs $0xffffff7ffc000000,%rax
  8004202531:	ff ff ff 
  8004202534:	48 89 c2             	mov    %rax,%rdx
  8004202537:	48 03 55 f0          	add    -0x10(%rbp),%rdx
  800420253b:	48 b8 d0 c7 63 04 80 	movabs $0x800463c7d0,%rax
  8004202542:	00 00 00 
  8004202545:	48 89 10             	mov    %rdx,(%rax)
	// Allocate an array of npages 'struct PageInfo's and store it in 'pages'.
	// The kernel uses this array to keep track of physical pages: for
	// each physical page, there is a corresponding struct PageInfo in this
	// array.  'npages' is the number of physical pages in memory.
	// Your code goes here:
	pages=(struct PageInfo *)boot_alloc(npages*sizeof(struct PageInfo));
  8004202548:	48 b8 e0 c7 63 04 80 	movabs $0x800463c7e0,%rax
  800420254f:	00 00 00 
  8004202552:	48 8b 00             	mov    (%rax),%rax
  8004202555:	c1 e0 04             	shl    $0x4,%eax
  8004202558:	89 c7                	mov    %eax,%edi
  800420255a:	48 b8 4a 23 20 04 80 	movabs $0x800420234a,%rax
  8004202561:	00 00 00 
  8004202564:	ff d0                	callq  *%rax
  8004202566:	48 ba e8 c7 63 04 80 	movabs $0x800463c7e8,%rdx
  800420256d:	00 00 00 
  8004202570:	48 89 02             	mov    %rax,(%rdx)

	//////////////////////////////////////////////////////////////////////
	// Make 'envs' point to an array of size 'NENV' of 'struct Env'.
	// LAB 3: Your code here.
	envs=(struct Env *)boot_alloc(NENV*sizeof(struct Env));
  8004202573:	bf 00 80 04 00       	mov    $0x48000,%edi
  8004202578:	48 b8 4a 23 20 04 80 	movabs $0x800420234a,%rax
  800420257f:	00 00 00 
  8004202582:	ff d0                	callq  *%rax
  8004202584:	48 ba 50 b2 63 04 80 	movabs $0x800463b250,%rdx
  800420258b:	00 00 00 
  800420258e:	48 89 02             	mov    %rax,(%rdx)
	memset(envs, 0, NENV * sizeof(struct Env));
  8004202591:	48 b8 50 b2 63 04 80 	movabs $0x800463b250,%rax
  8004202598:	00 00 00 
  800420259b:	48 8b 00             	mov    (%rax),%rax
  800420259e:	ba 00 80 04 00       	mov    $0x48000,%edx
  80042025a3:	be 00 00 00 00       	mov    $0x0,%esi
  80042025a8:	48 89 c7             	mov    %rax,%rdi
  80042025ab:	48 b8 53 e6 20 04 80 	movabs $0x800420e653,%rax
  80042025b2:	00 00 00 
  80042025b5:	ff d0                	callq  *%rax
	// Now that we've allocated the initial kernel data structures, we set
	// up the list of free physical pages. Once we've done so, all further
	// memory management will go through the page_* functions. In
	// particular, we can now map memory using boot_map_region or page_insert
	
	page_init();
  80042025b7:	48 b8 a3 2a 20 04 80 	movabs $0x8004202aa3,%rax
  80042025be:	00 00 00 
  80042025c1:	ff d0                	callq  *%rax
	// Permissions:
	//    - the new image at UPAGES -- kernel R, us/er R
	//      (ie. perm = PTE_U | PTE_P)
	//    - pages itself -- kernel RW, user NONE
	// Your code goes here:
	size_t pagessize = ROUNDUP(npages*(sizeof(struct PageInfo)),PGSIZE);	
  80042025c3:	48 c7 45 e8 00 10 00 	movq   $0x1000,-0x18(%rbp)
  80042025ca:	00 
  80042025cb:	48 b8 e0 c7 63 04 80 	movabs $0x800463c7e0,%rax
  80042025d2:	00 00 00 
  80042025d5:	48 8b 00             	mov    (%rax),%rax
  80042025d8:	48 c1 e0 04          	shl    $0x4,%rax
  80042025dc:	48 03 45 e8          	add    -0x18(%rbp),%rax
  80042025e0:	48 83 e8 01          	sub    $0x1,%rax
  80042025e4:	48 89 45 e0          	mov    %rax,-0x20(%rbp)
  80042025e8:	48 8b 45 e0          	mov    -0x20(%rbp),%rax
  80042025ec:	ba 00 00 00 00       	mov    $0x0,%edx
  80042025f1:	48 f7 75 e8          	divq   -0x18(%rbp)
  80042025f5:	48 89 d0             	mov    %rdx,%rax
  80042025f8:	48 8b 55 e0          	mov    -0x20(%rbp),%rdx
  80042025fc:	48 89 d1             	mov    %rdx,%rcx
  80042025ff:	48 29 c1             	sub    %rax,%rcx
  8004202602:	48 89 c8             	mov    %rcx,%rax
  8004202605:	48 89 45 d8          	mov    %rax,-0x28(%rbp)
	boot_map_region(boot_pml4e, UPAGES, pagessize, PADDR(pages),PTE_U | PTE_P);
  8004202609:	48 b8 e8 c7 63 04 80 	movabs $0x800463c7e8,%rax
  8004202610:	00 00 00 
  8004202613:	48 8b 00             	mov    (%rax),%rax
  8004202616:	48 89 45 d0          	mov    %rax,-0x30(%rbp)
  800420261a:	48 b8 ff ff ff 03 80 	movabs $0x8003ffffff,%rax
  8004202621:	00 00 00 
  8004202624:	48 39 45 d0          	cmp    %rax,-0x30(%rbp)
  8004202628:	77 32                	ja     800420265c <x64_vm_init+0x1d6>
  800420262a:	48 8b 45 d0          	mov    -0x30(%rbp),%rax
  800420262e:	48 89 c1             	mov    %rax,%rcx
  8004202631:	48 ba 88 74 21 04 80 	movabs $0x8004217488,%rdx
  8004202638:	00 00 00 
  800420263b:	be 2f 01 00 00       	mov    $0x12f,%esi
  8004202640:	48 bf ee 73 21 04 80 	movabs $0x80042173ee,%rdi
  8004202647:	00 00 00 
  800420264a:	b8 00 00 00 00       	mov    $0x0,%eax
  800420264f:	49 b8 f2 04 20 04 80 	movabs $0x80042004f2,%r8
  8004202656:	00 00 00 
  8004202659:	41 ff d0             	callq  *%r8
  800420265c:	48 b8 00 00 00 fc 7f 	movabs $0xffffff7ffc000000,%rax
  8004202663:	ff ff ff 
  8004202666:	48 89 c1             	mov    %rax,%rcx
  8004202669:	48 03 4d d0          	add    -0x30(%rbp),%rcx
  800420266d:	48 b8 d8 c7 63 04 80 	movabs $0x800463c7d8,%rax
  8004202674:	00 00 00 
  8004202677:	48 8b 00             	mov    (%rax),%rax
  800420267a:	48 8b 55 d8          	mov    -0x28(%rbp),%rdx
  800420267e:	41 b8 05 00 00 00    	mov    $0x5,%r8d
  8004202684:	48 be 00 00 a0 00 80 	movabs $0x8000a00000,%rsi
  800420268b:	00 00 00 
  800420268e:	48 89 c7             	mov    %rax,%rdi
  8004202691:	48 b8 b2 34 20 04 80 	movabs $0x80042034b2,%rax
  8004202698:	00 00 00 
  800420269b:	ff d0                	callq  *%rax
	// (ie. perm = PTE_U | PTE_P).
	// Permissions:
	//    - the new image at UENVS  -- kernel R, user R
	//    - envs itself -- kernel RW, user NONE
	// LAB 3: Your code here.
	size_t envssize = ROUNDUP(NENV*(sizeof(struct Env)),PGSIZE);
  800420269d:	48 c7 45 c8 00 10 00 	movq   $0x1000,-0x38(%rbp)
  80042026a4:	00 
  80042026a5:	48 8b 45 c8          	mov    -0x38(%rbp),%rax
  80042026a9:	48 05 ff 7f 04 00    	add    $0x47fff,%rax
  80042026af:	48 89 45 c0          	mov    %rax,-0x40(%rbp)
  80042026b3:	48 8b 45 c0          	mov    -0x40(%rbp),%rax
  80042026b7:	ba 00 00 00 00       	mov    $0x0,%edx
  80042026bc:	48 f7 75 c8          	divq   -0x38(%rbp)
  80042026c0:	48 89 d0             	mov    %rdx,%rax
  80042026c3:	48 8b 55 c0          	mov    -0x40(%rbp),%rdx
  80042026c7:	48 89 d1             	mov    %rdx,%rcx
  80042026ca:	48 29 c1             	sub    %rax,%rcx
  80042026cd:	48 89 c8             	mov    %rcx,%rax
  80042026d0:	48 89 45 b8          	mov    %rax,-0x48(%rbp)
	boot_map_region(boot_pml4e, UENVS, envssize, PADDR(envs), PTE_U | PTE_P);
  80042026d4:	48 b8 50 b2 63 04 80 	movabs $0x800463b250,%rax
  80042026db:	00 00 00 
  80042026de:	48 8b 00             	mov    (%rax),%rax
  80042026e1:	48 89 45 b0          	mov    %rax,-0x50(%rbp)
  80042026e5:	48 b8 ff ff ff 03 80 	movabs $0x8003ffffff,%rax
  80042026ec:	00 00 00 
  80042026ef:	48 39 45 b0          	cmp    %rax,-0x50(%rbp)
  80042026f3:	77 32                	ja     8004202727 <x64_vm_init+0x2a1>
  80042026f5:	48 8b 45 b0          	mov    -0x50(%rbp),%rax
  80042026f9:	48 89 c1             	mov    %rax,%rcx
  80042026fc:	48 ba 88 74 21 04 80 	movabs $0x8004217488,%rdx
  8004202703:	00 00 00 
  8004202706:	be 39 01 00 00       	mov    $0x139,%esi
  800420270b:	48 bf ee 73 21 04 80 	movabs $0x80042173ee,%rdi
  8004202712:	00 00 00 
  8004202715:	b8 00 00 00 00       	mov    $0x0,%eax
  800420271a:	49 b8 f2 04 20 04 80 	movabs $0x80042004f2,%r8
  8004202721:	00 00 00 
  8004202724:	41 ff d0             	callq  *%r8
  8004202727:	48 b8 00 00 00 fc 7f 	movabs $0xffffff7ffc000000,%rax
  800420272e:	ff ff ff 
  8004202731:	48 89 c1             	mov    %rax,%rcx
  8004202734:	48 03 4d b0          	add    -0x50(%rbp),%rcx
  8004202738:	48 b8 d8 c7 63 04 80 	movabs $0x800463c7d8,%rax
  800420273f:	00 00 00 
  8004202742:	48 8b 00             	mov    (%rax),%rax
  8004202745:	48 8b 55 b8          	mov    -0x48(%rbp),%rdx
  8004202749:	41 b8 05 00 00 00    	mov    $0x5,%r8d
  800420274f:	48 be 00 00 80 00 80 	movabs $0x8000800000,%rsi
  8004202756:	00 00 00 
  8004202759:	48 89 c7             	mov    %rax,%rdi
  800420275c:	48 b8 b2 34 20 04 80 	movabs $0x80042034b2,%rax
  8004202763:	00 00 00 
  8004202766:	ff d0                	callq  *%rax
	//     * [KSTACKTOP-PTSIZE, KSTACKTOP-KSTKSIZE) -- not backed; so if
	//       the kernel overflows its stack, it will fault rather than
	//       overwrite memory.  Known as a "guard page".
	//     Permissions: kernel RW, user NONE
	// Your code goes here:
	boot_map_region(boot_pml4e, KSTACKTOP-KSTKSIZE, KSTKSIZE,PADDR(bootstack) ,PTE_P | PTE_W);
  8004202768:	48 b8 00 a0 21 04 80 	movabs $0x800421a000,%rax
  800420276f:	00 00 00 
  8004202772:	48 89 45 a8          	mov    %rax,-0x58(%rbp)
  8004202776:	48 b8 ff ff ff 03 80 	movabs $0x8003ffffff,%rax
  800420277d:	00 00 00 
  8004202780:	48 39 45 a8          	cmp    %rax,-0x58(%rbp)
  8004202784:	77 32                	ja     80042027b8 <x64_vm_init+0x332>
  8004202786:	48 8b 45 a8          	mov    -0x58(%rbp),%rax
  800420278a:	48 89 c1             	mov    %rax,%rcx
  800420278d:	48 ba 88 74 21 04 80 	movabs $0x8004217488,%rdx
  8004202794:	00 00 00 
  8004202797:	be 46 01 00 00       	mov    $0x146,%esi
  800420279c:	48 bf ee 73 21 04 80 	movabs $0x80042173ee,%rdi
  80042027a3:	00 00 00 
  80042027a6:	b8 00 00 00 00       	mov    $0x0,%eax
  80042027ab:	49 b8 f2 04 20 04 80 	movabs $0x80042004f2,%r8
  80042027b2:	00 00 00 
  80042027b5:	41 ff d0             	callq  *%r8
  80042027b8:	48 b8 00 00 00 fc 7f 	movabs $0xffffff7ffc000000,%rax
  80042027bf:	ff ff ff 
  80042027c2:	48 89 c2             	mov    %rax,%rdx
  80042027c5:	48 03 55 a8          	add    -0x58(%rbp),%rdx
  80042027c9:	48 b8 d8 c7 63 04 80 	movabs $0x800463c7d8,%rax
  80042027d0:	00 00 00 
  80042027d3:	48 8b 00             	mov    (%rax),%rax
  80042027d6:	41 b8 03 00 00 00    	mov    $0x3,%r8d
  80042027dc:	48 89 d1             	mov    %rdx,%rcx
  80042027df:	ba 00 00 01 00       	mov    $0x10000,%edx
  80042027e4:	48 be 00 00 ff 03 80 	movabs $0x8003ff0000,%rsi
  80042027eb:	00 00 00 
  80042027ee:	48 89 c7             	mov    %rax,%rdi
  80042027f1:	48 b8 b2 34 20 04 80 	movabs $0x80042034b2,%rax
  80042027f8:	00 00 00 
  80042027fb:	ff d0                	callq  *%rax
    // of physical pages to be npages.
	// Ie.  the VA range [KERNBASE, npages*PGSIZE) should map to
	//      the PA range [0, npages*PGSIZE)
	// Permissions: kernel RW, user NONE
	// Your code goes here:
	boot_map_region(boot_pml4e, KERNBASE, npages *PGSIZE, (physaddr_t)0x0, PTE_P | PTE_W);	
  80042027fd:	48 b8 e0 c7 63 04 80 	movabs $0x800463c7e0,%rax
  8004202804:	00 00 00 
  8004202807:	48 8b 00             	mov    (%rax),%rax
  800420280a:	48 89 c2             	mov    %rax,%rdx
  800420280d:	48 c1 e2 0c          	shl    $0xc,%rdx
  8004202811:	48 b8 d8 c7 63 04 80 	movabs $0x800463c7d8,%rax
  8004202818:	00 00 00 
  800420281b:	48 8b 00             	mov    (%rax),%rax
  800420281e:	41 b8 03 00 00 00    	mov    $0x3,%r8d
  8004202824:	b9 00 00 00 00       	mov    $0x0,%ecx
  8004202829:	48 be 00 00 00 04 80 	movabs $0x8004000000,%rsi
  8004202830:	00 00 00 
  8004202833:	48 89 c7             	mov    %rax,%rdi
  8004202836:	48 b8 b2 34 20 04 80 	movabs $0x80042034b2,%rax
  800420283d:	00 00 00 
  8004202840:	ff d0                	callq  *%rax
	//boot_map_region(boot_pml4e,(uint64_t)recvDescRing, NUM_RX_DESC*16, PADDR(recvDescRing),PTE_P | PTE_U | PTE_W);
	
	
	// Check that the initial page directory has been set up correctly.
	// Initialize the SMP-related parts of the memory map
	mem_init_mp();
  8004202842:	48 b8 b5 29 20 04 80 	movabs $0x80042029b5,%rax
  8004202849:	00 00 00 
  800420284c:	ff d0                	callq  *%rax

	check_boot_pml4e(boot_pml4e);
  800420284e:	48 b8 d8 c7 63 04 80 	movabs $0x800463c7d8,%rax
  8004202855:	00 00 00 
  8004202858:	48 8b 00             	mov    (%rax),%rax
  800420285b:	48 89 c7             	mov    %rax,%rdi
  800420285e:	48 b8 a9 4a 20 04 80 	movabs $0x8004204aa9,%rax
  8004202865:	00 00 00 
  8004202868:	ff d0                	callq  *%rax

	//////////////////////////////////////////////////////////////////////
	// Permissions: kernel RW, user NONE
         lcr3(boot_cr3);
  800420286a:	48 b8 d0 c7 63 04 80 	movabs $0x800463c7d0,%rax
  8004202871:	00 00 00 
  8004202874:	48 8b 00             	mov    (%rax),%rax
  8004202877:	48 89 85 70 ff ff ff 	mov    %rax,-0x90(%rbp)
}

static __inline void
lcr3(uint64_t val)
{
	__asm __volatile("movq %0,%%cr3" : : "r" (val));
  800420287e:	48 8b 85 70 ff ff ff 	mov    -0x90(%rbp),%rax
  8004202885:	0f 22 d8             	mov    %rax,%cr3

	pdpe_t *pdpe = KADDR(PTE_ADDR(pml4e[1]));
  8004202888:	48 8b 45 f8          	mov    -0x8(%rbp),%rax
  800420288c:	48 83 c0 08          	add    $0x8,%rax
  8004202890:	48 8b 00             	mov    (%rax),%rax
  8004202893:	48 25 00 f0 ff ff    	and    $0xfffffffffffff000,%rax
  8004202899:	48 89 45 a0          	mov    %rax,-0x60(%rbp)
  800420289d:	48 8b 45 a0          	mov    -0x60(%rbp),%rax
  80042028a1:	48 c1 e8 0c          	shr    $0xc,%rax
  80042028a5:	89 45 9c             	mov    %eax,-0x64(%rbp)
  80042028a8:	8b 55 9c             	mov    -0x64(%rbp),%edx
  80042028ab:	48 b8 e0 c7 63 04 80 	movabs $0x800463c7e0,%rax
  80042028b2:	00 00 00 
  80042028b5:	48 8b 00             	mov    (%rax),%rax
  80042028b8:	48 39 c2             	cmp    %rax,%rdx
  80042028bb:	72 32                	jb     80042028ef <x64_vm_init+0x469>
  80042028bd:	48 8b 45 a0          	mov    -0x60(%rbp),%rax
  80042028c1:	48 89 c1             	mov    %rax,%rcx
  80042028c4:	48 ba 60 73 21 04 80 	movabs $0x8004217360,%rdx
  80042028cb:	00 00 00 
  80042028ce:	be 5f 01 00 00       	mov    $0x15f,%esi
  80042028d3:	48 bf ee 73 21 04 80 	movabs $0x80042173ee,%rdi
  80042028da:	00 00 00 
  80042028dd:	b8 00 00 00 00       	mov    $0x0,%eax
  80042028e2:	49 b8 f2 04 20 04 80 	movabs $0x80042004f2,%r8
  80042028e9:	00 00 00 
  80042028ec:	41 ff d0             	callq  *%r8
  80042028ef:	48 b8 00 00 00 04 80 	movabs $0x8004000000,%rax
  80042028f6:	00 00 00 
  80042028f9:	48 03 45 a0          	add    -0x60(%rbp),%rax
  80042028fd:	48 89 45 90          	mov    %rax,-0x70(%rbp)
        pde_t *pgdir = KADDR(PTE_ADDR(pdpe[0]));
  8004202901:	48 8b 45 90          	mov    -0x70(%rbp),%rax
  8004202905:	48 8b 00             	mov    (%rax),%rax
  8004202908:	48 25 00 f0 ff ff    	and    $0xfffffffffffff000,%rax
  800420290e:	48 89 45 88          	mov    %rax,-0x78(%rbp)
  8004202912:	48 8b 45 88          	mov    -0x78(%rbp),%rax
  8004202916:	48 c1 e8 0c          	shr    $0xc,%rax
  800420291a:	89 45 84             	mov    %eax,-0x7c(%rbp)
  800420291d:	8b 55 84             	mov    -0x7c(%rbp),%edx
  8004202920:	48 b8 e0 c7 63 04 80 	movabs $0x800463c7e0,%rax
  8004202927:	00 00 00 
  800420292a:	48 8b 00             	mov    (%rax),%rax
  800420292d:	48 39 c2             	cmp    %rax,%rdx
  8004202930:	72 32                	jb     8004202964 <x64_vm_init+0x4de>
  8004202932:	48 8b 45 88          	mov    -0x78(%rbp),%rax
  8004202936:	48 89 c1             	mov    %rax,%rcx
  8004202939:	48 ba 60 73 21 04 80 	movabs $0x8004217360,%rdx
  8004202940:	00 00 00 
  8004202943:	be 60 01 00 00       	mov    $0x160,%esi
  8004202948:	48 bf ee 73 21 04 80 	movabs $0x80042173ee,%rdi
  800420294f:	00 00 00 
  8004202952:	b8 00 00 00 00       	mov    $0x0,%eax
  8004202957:	49 b8 f2 04 20 04 80 	movabs $0x80042004f2,%r8
  800420295e:	00 00 00 
  8004202961:	41 ff d0             	callq  *%r8
  8004202964:	48 b8 00 00 00 04 80 	movabs $0x8004000000,%rax
  800420296b:	00 00 00 
  800420296e:	48 03 45 88          	add    -0x78(%rbp),%rax
  8004202972:	48 89 85 78 ff ff ff 	mov    %rax,-0x88(%rbp)
	

	 check_page_free_list(1);
  8004202979:	bf 01 00 00 00       	mov    $0x1,%edi
  800420297e:	48 b8 8f 3b 20 04 80 	movabs $0x8004203b8f,%rax
  8004202985:	00 00 00 
  8004202988:	ff d0                	callq  *%rax
        check_page_alloc();
  800420298a:	48 b8 c1 40 20 04 80 	movabs $0x80042040c1,%rax
  8004202991:	00 00 00 
  8004202994:	ff d0                	callq  *%rax
        page_check();
  8004202996:	48 b8 46 54 20 04 80 	movabs $0x8004205446,%rax
  800420299d:	00 00 00 
  80042029a0:	ff d0                	callq  *%rax

        check_page_free_list(0);
  80042029a2:	bf 00 00 00 00       	mov    $0x0,%edi
  80042029a7:	48 b8 8f 3b 20 04 80 	movabs $0x8004203b8f,%rax
  80042029ae:	00 00 00 
  80042029b1:	ff d0                	callq  *%rax
        //check_page_alloc();
        //page_check();
	//check_page_free_list(0);


}
  80042029b3:	c9                   	leaveq 
  80042029b4:	c3                   	retq   

00000080042029b5 <mem_init_mp>:
// Modify mappings in boot_pml4e to support SMP
//   - Map the per-CPU stacks in the region [KSTACKTOP-PTSIZE, KSTACKTOP)
//
	static void
mem_init_mp(void)
{
  80042029b5:	55                   	push   %rbp
  80042029b6:	48 89 e5             	mov    %rsp,%rbp
  80042029b9:	48 83 ec 20          	sub    $0x20,%rsp
	//     Permissions: kernel RW, user NONE
	//
	// LAB 4: Your code here:
 	int i;
	uintptr_t kstacktop_i;
	for(i=0;i<NCPU;i++)
  80042029bd:	c7 45 fc 00 00 00 00 	movl   $0x0,-0x4(%rbp)
  80042029c4:	e9 ce 00 00 00       	jmpq   8004202a97 <mem_init_mp+0xe2>
	{
		kstacktop_i= KSTACKTOP-i*(KSTKSIZE + KSTKGAP);
  80042029c9:	8b 55 fc             	mov    -0x4(%rbp),%edx
  80042029cc:	89 d0                	mov    %edx,%eax
  80042029ce:	01 c0                	add    %eax,%eax
  80042029d0:	01 d0                	add    %edx,%eax
  80042029d2:	c1 e0 0f             	shl    $0xf,%eax
  80042029d5:	48 98                	cltq   
  80042029d7:	48 ba 00 00 00 04 80 	movabs $0x8004000000,%rdx
  80042029de:	00 00 00 
  80042029e1:	48 89 d1             	mov    %rdx,%rcx
  80042029e4:	48 29 c1             	sub    %rax,%rcx
  80042029e7:	48 89 c8             	mov    %rcx,%rax
  80042029ea:	48 89 45 f0          	mov    %rax,-0x10(%rbp)
		boot_map_region(boot_pml4e,kstacktop_i-KSTKSIZE,KSTKSIZE,PADDR(percpu_kstacks[i]),PTE_P | PTE_W);
  80042029ee:	8b 45 fc             	mov    -0x4(%rbp),%eax
  80042029f1:	48 98                	cltq   
  80042029f3:	48 89 c2             	mov    %rax,%rdx
  80042029f6:	48 c1 e2 10          	shl    $0x10,%rdx
  80042029fa:	48 b8 00 f0 67 04 80 	movabs $0x800467f000,%rax
  8004202a01:	00 00 00 
  8004202a04:	48 01 d0             	add    %rdx,%rax
  8004202a07:	48 89 45 e8          	mov    %rax,-0x18(%rbp)
  8004202a0b:	48 b8 ff ff ff 03 80 	movabs $0x8003ffffff,%rax
  8004202a12:	00 00 00 
  8004202a15:	48 39 45 e8          	cmp    %rax,-0x18(%rbp)
  8004202a19:	77 32                	ja     8004202a4d <mem_init_mp+0x98>
  8004202a1b:	48 8b 45 e8          	mov    -0x18(%rbp),%rax
  8004202a1f:	48 89 c1             	mov    %rax,%rcx
  8004202a22:	48 ba 88 74 21 04 80 	movabs $0x8004217488,%rdx
  8004202a29:	00 00 00 
  8004202a2c:	be 8f 01 00 00       	mov    $0x18f,%esi
  8004202a31:	48 bf ee 73 21 04 80 	movabs $0x80042173ee,%rdi
  8004202a38:	00 00 00 
  8004202a3b:	b8 00 00 00 00       	mov    $0x0,%eax
  8004202a40:	49 b8 f2 04 20 04 80 	movabs $0x80042004f2,%r8
  8004202a47:	00 00 00 
  8004202a4a:	41 ff d0             	callq  *%r8
  8004202a4d:	48 b8 00 00 00 fc 7f 	movabs $0xffffff7ffc000000,%rax
  8004202a54:	ff ff ff 
  8004202a57:	48 89 c2             	mov    %rax,%rdx
  8004202a5a:	48 03 55 e8          	add    -0x18(%rbp),%rdx
  8004202a5e:	48 8b 45 f0          	mov    -0x10(%rbp),%rax
  8004202a62:	48 8d b0 00 00 ff ff 	lea    -0x10000(%rax),%rsi
  8004202a69:	48 b8 d8 c7 63 04 80 	movabs $0x800463c7d8,%rax
  8004202a70:	00 00 00 
  8004202a73:	48 8b 00             	mov    (%rax),%rax
  8004202a76:	41 b8 03 00 00 00    	mov    $0x3,%r8d
  8004202a7c:	48 89 d1             	mov    %rdx,%rcx
  8004202a7f:	ba 00 00 01 00       	mov    $0x10000,%edx
  8004202a84:	48 89 c7             	mov    %rax,%rdi
  8004202a87:	48 b8 b2 34 20 04 80 	movabs $0x80042034b2,%rax
  8004202a8e:	00 00 00 
  8004202a91:	ff d0                	callq  *%rax
	//     Permissions: kernel RW, user NONE
	//
	// LAB 4: Your code here:
 	int i;
	uintptr_t kstacktop_i;
	for(i=0;i<NCPU;i++)
  8004202a93:	83 45 fc 01          	addl   $0x1,-0x4(%rbp)
  8004202a97:	83 7d fc 07          	cmpl   $0x7,-0x4(%rbp)
  8004202a9b:	0f 8e 28 ff ff ff    	jle    80042029c9 <mem_init_mp+0x14>
	{
		kstacktop_i= KSTACKTOP-i*(KSTKSIZE + KSTKGAP);
		boot_map_region(boot_pml4e,kstacktop_i-KSTKSIZE,KSTKSIZE,PADDR(percpu_kstacks[i]),PTE_P | PTE_W);
	}	
}
  8004202aa1:	c9                   	leaveq 
  8004202aa2:	c3                   	retq   

0000008004202aa3 <page_init>:
// After this is done, NEVER use boot_alloc again.  ONLY use the page
// allocator functions below to allocate and deallocate physical
// memory via the page_free_list.
//
void page_init(void)
{
  8004202aa3:	55                   	push   %rbp
  8004202aa4:	48 89 e5             	mov    %rsp,%rbp
  8004202aa7:	48 83 ec 30          	sub    $0x30,%rsp
    // NB: Make sure you preserve the direction in which your page_free_list 
    // is constructed
	// NB: Remember to mark the memory used for initial boot page table i.e (va>=BOOT_PAGE_TABLE_START && va < BOOT_PAGE_TABLE_END) as in-use (not free)

	size_t i,temp;
        struct PageInfo *head = NULL,*tail=NULL;
  8004202aab:	48 c7 45 e8 00 00 00 	movq   $0x0,-0x18(%rbp)
  8004202ab2:	00 
  8004202ab3:	48 c7 45 e0 00 00 00 	movq   $0x0,-0x20(%rbp)
  8004202aba:	00 
	physaddr_t phy;
        temp=0;
  8004202abb:	48 c7 45 f0 00 00 00 	movq   $0x0,-0x10(%rbp)
  8004202ac2:	00 
	//cprintf("\nPA: %x",PADDR(boot_alloc(0)));
	//cprintf("IOPHYSMEM: %x\nEXTPHYSMEM: %x\nboot_alloc(0) %u",IOPHYSMEM,EXTPHYSMEM,boot_alloc(0));
	//cprintf("PA: %x",PADDR(BOOT_PAGE_TABLE_START));
	//cprintf("PA :%x        VA :%x",EXTPHYSMEM,KADDR(EXTPHYSMEM));
	//cprintf("PA :%x  VA :%x",IOPHYSMEM,KADDR(IOPHYSMEM));
        for(i=0;i<npages;i++,temp=0)
  8004202ac3:	48 c7 45 f8 00 00 00 	movq   $0x0,-0x8(%rbp)
  8004202aca:	00 
  8004202acb:	e9 9f 01 00 00       	jmpq   8004202c6f <page_init+0x1cc>
        {
		pages[i].pp_ref=0;
  8004202ad0:	48 b8 e8 c7 63 04 80 	movabs $0x800463c7e8,%rax
  8004202ad7:	00 00 00 
  8004202ada:	48 8b 00             	mov    (%rax),%rax
  8004202add:	48 8b 55 f8          	mov    -0x8(%rbp),%rdx
  8004202ae1:	48 c1 e2 04          	shl    $0x4,%rdx
  8004202ae5:	48 01 d0             	add    %rdx,%rax
  8004202ae8:	66 c7 40 08 00 00    	movw   $0x0,0x8(%rax)
                phy=page2pa(&pages[i]);
  8004202aee:	48 b8 e8 c7 63 04 80 	movabs $0x800463c7e8,%rax
  8004202af5:	00 00 00 
  8004202af8:	48 8b 00             	mov    (%rax),%rax
  8004202afb:	48 8b 55 f8          	mov    -0x8(%rbp),%rdx
  8004202aff:	48 c1 e2 04          	shl    $0x4,%rdx
  8004202b03:	48 01 d0             	add    %rdx,%rax
  8004202b06:	48 89 c7             	mov    %rax,%rdi
  8004202b09:	48 b8 98 19 20 04 80 	movabs $0x8004201998,%rax
  8004202b10:	00 00 00 
  8004202b13:	ff d0                	callq  *%rax
  8004202b15:	48 89 45 d8          	mov    %rax,-0x28(%rbp)
		//cprintf(" Page %d PA : %x ",i,phy);
                //cprintf("%x\t%x\n",EXTPHYSMEM,PADDR(boot_alloc(0)));
		//cprintf("%d\t%d\t%d\n",npages,npages_basemem,npages_extmem);
		if(i==0)
  8004202b19:	48 83 7d f8 00       	cmpq   $0x0,-0x8(%rbp)
  8004202b1e:	75 0d                	jne    8004202b2d <page_init+0x8a>
                        temp=1;
  8004202b20:	48 c7 45 f0 01 00 00 	movq   $0x1,-0x10(%rbp)
  8004202b27:	00 
  8004202b28:	e9 b2 00 00 00       	jmpq   8004202bdf <page_init+0x13c>
                else if(phy >= IOPHYSMEM && phy < EXTPHYSMEM )
  8004202b2d:	48 81 7d d8 ff ff 09 	cmpq   $0x9ffff,-0x28(%rbp)
  8004202b34:	00 
  8004202b35:	76 17                	jbe    8004202b4e <page_init+0xab>
  8004202b37:	48 81 7d d8 ff ff 0f 	cmpq   $0xfffff,-0x28(%rbp)
  8004202b3e:	00 
  8004202b3f:	77 0d                	ja     8004202b4e <page_init+0xab>
                        temp=1;
  8004202b41:	48 c7 45 f0 01 00 00 	movq   $0x1,-0x10(%rbp)
  8004202b48:	00 
  8004202b49:	e9 91 00 00 00       	jmpq   8004202bdf <page_init+0x13c>
		//cprintf("%x\t%x\n",EXTPHYSMEM,PADDR(boot_alloc(0)));
                else if(phy >= EXTPHYSMEM && phy < PADDR(boot_alloc(0)))
  8004202b4e:	48 81 7d d8 ff ff 0f 	cmpq   $0xfffff,-0x28(%rbp)
  8004202b55:	00 
  8004202b56:	76 75                	jbe    8004202bcd <page_init+0x12a>
  8004202b58:	bf 00 00 00 00       	mov    $0x0,%edi
  8004202b5d:	48 b8 4a 23 20 04 80 	movabs $0x800420234a,%rax
  8004202b64:	00 00 00 
  8004202b67:	ff d0                	callq  *%rax
  8004202b69:	48 89 45 d0          	mov    %rax,-0x30(%rbp)
  8004202b6d:	48 b8 ff ff ff 03 80 	movabs $0x8003ffffff,%rax
  8004202b74:	00 00 00 
  8004202b77:	48 39 45 d0          	cmp    %rax,-0x30(%rbp)
  8004202b7b:	77 32                	ja     8004202baf <page_init+0x10c>
  8004202b7d:	48 8b 45 d0          	mov    -0x30(%rbp),%rax
  8004202b81:	48 89 c1             	mov    %rax,%rcx
  8004202b84:	48 ba 88 74 21 04 80 	movabs $0x8004217488,%rdx
  8004202b8b:	00 00 00 
  8004202b8e:	be cf 01 00 00       	mov    $0x1cf,%esi
  8004202b93:	48 bf ee 73 21 04 80 	movabs $0x80042173ee,%rdi
  8004202b9a:	00 00 00 
  8004202b9d:	b8 00 00 00 00       	mov    $0x0,%eax
  8004202ba2:	49 b8 f2 04 20 04 80 	movabs $0x80042004f2,%r8
  8004202ba9:	00 00 00 
  8004202bac:	41 ff d0             	callq  *%r8
  8004202baf:	48 b8 00 00 00 fc 7f 	movabs $0xffffff7ffc000000,%rax
  8004202bb6:	ff ff ff 
  8004202bb9:	48 03 45 d0          	add    -0x30(%rbp),%rax
  8004202bbd:	48 3b 45 d8          	cmp    -0x28(%rbp),%rax
  8004202bc1:	76 0a                	jbe    8004202bcd <page_init+0x12a>
                        temp=1;
  8004202bc3:	48 c7 45 f0 01 00 00 	movq   $0x1,-0x10(%rbp)
  8004202bca:	00 
  8004202bcb:	eb 12                	jmp    8004202bdf <page_init+0x13c>
		else if(phy == MPENTRY_PADDR)
  8004202bcd:	48 81 7d d8 00 70 00 	cmpq   $0x7000,-0x28(%rbp)
  8004202bd4:	00 
  8004202bd5:	75 08                	jne    8004202bdf <page_init+0x13c>
		{
		//	cprintf("\nEntered page_init:MPENTRY_PADDR invalidation area\n");
			temp=1;
  8004202bd7:	48 c7 45 f0 01 00 00 	movq   $0x1,-0x10(%rbp)
  8004202bde:	00 
		}
                //else if((phy >= PADDR(BOOT_PAGE_TABLE_START)) && (phy < PADDR(BOOT_PAGE_TABLE_END)))
                //        temp=1;
	        if(temp==0)
  8004202bdf:	48 83 7d f0 00       	cmpq   $0x0,-0x10(%rbp)
  8004202be4:	75 7c                	jne    8004202c62 <page_init+0x1bf>
                {
                        if(head==NULL)
  8004202be6:	48 83 7d e8 00       	cmpq   $0x0,-0x18(%rbp)
  8004202beb:	75 3a                	jne    8004202c27 <page_init+0x184>
                        {
                                head=&pages[i];
  8004202bed:	48 b8 e8 c7 63 04 80 	movabs $0x800463c7e8,%rax
  8004202bf4:	00 00 00 
  8004202bf7:	48 8b 00             	mov    (%rax),%rax
  8004202bfa:	48 8b 55 f8          	mov    -0x8(%rbp),%rdx
  8004202bfe:	48 c1 e2 04          	shl    $0x4,%rdx
  8004202c02:	48 01 d0             	add    %rdx,%rax
  8004202c05:	48 89 45 e8          	mov    %rax,-0x18(%rbp)
                                tail=&pages[i];
  8004202c09:	48 b8 e8 c7 63 04 80 	movabs $0x800463c7e8,%rax
  8004202c10:	00 00 00 
  8004202c13:	48 8b 00             	mov    (%rax),%rax
  8004202c16:	48 8b 55 f8          	mov    -0x8(%rbp),%rdx
  8004202c1a:	48 c1 e2 04          	shl    $0x4,%rdx
  8004202c1e:	48 01 d0             	add    %rdx,%rax
  8004202c21:	48 89 45 e0          	mov    %rax,-0x20(%rbp)
  8004202c25:	eb 3b                	jmp    8004202c62 <page_init+0x1bf>
                        }
                        else
                        {
                        tail->pp_link=&pages[i];
  8004202c27:	48 b8 e8 c7 63 04 80 	movabs $0x800463c7e8,%rax
  8004202c2e:	00 00 00 
  8004202c31:	48 8b 00             	mov    (%rax),%rax
  8004202c34:	48 8b 55 f8          	mov    -0x8(%rbp),%rdx
  8004202c38:	48 c1 e2 04          	shl    $0x4,%rdx
  8004202c3c:	48 01 c2             	add    %rax,%rdx
  8004202c3f:	48 8b 45 e0          	mov    -0x20(%rbp),%rax
  8004202c43:	48 89 10             	mov    %rdx,(%rax)
                        tail=&pages[i];
  8004202c46:	48 b8 e8 c7 63 04 80 	movabs $0x800463c7e8,%rax
  8004202c4d:	00 00 00 
  8004202c50:	48 8b 00             	mov    (%rax),%rax
  8004202c53:	48 8b 55 f8          	mov    -0x8(%rbp),%rdx
  8004202c57:	48 c1 e2 04          	shl    $0x4,%rdx
  8004202c5b:	48 01 d0             	add    %rdx,%rax
  8004202c5e:	48 89 45 e0          	mov    %rax,-0x20(%rbp)
	//cprintf("\nPA: %x",PADDR(boot_alloc(0)));
	//cprintf("IOPHYSMEM: %x\nEXTPHYSMEM: %x\nboot_alloc(0) %u",IOPHYSMEM,EXTPHYSMEM,boot_alloc(0));
	//cprintf("PA: %x",PADDR(BOOT_PAGE_TABLE_START));
	//cprintf("PA :%x        VA :%x",EXTPHYSMEM,KADDR(EXTPHYSMEM));
	//cprintf("PA :%x  VA :%x",IOPHYSMEM,KADDR(IOPHYSMEM));
        for(i=0;i<npages;i++,temp=0)
  8004202c62:	48 83 45 f8 01       	addq   $0x1,-0x8(%rbp)
  8004202c67:	48 c7 45 f0 00 00 00 	movq   $0x0,-0x10(%rbp)
  8004202c6e:	00 
  8004202c6f:	48 b8 e0 c7 63 04 80 	movabs $0x800463c7e0,%rax
  8004202c76:	00 00 00 
  8004202c79:	48 8b 00             	mov    (%rax),%rax
  8004202c7c:	48 39 45 f8          	cmp    %rax,-0x8(%rbp)
  8004202c80:	0f 82 4a fe ff ff    	jb     8004202ad0 <page_init+0x2d>
                        tail->pp_link=&pages[i];
                        tail=&pages[i];
                        }
               }
        }
        page_free_list=head;
  8004202c86:	48 b8 38 b2 63 04 80 	movabs $0x800463b238,%rax
  8004202c8d:	00 00 00 
  8004202c90:	48 8b 55 e8          	mov    -0x18(%rbp),%rdx
  8004202c94:	48 89 10             	mov    %rdx,(%rax)

}
  8004202c97:	c9                   	leaveq 
  8004202c98:	c3                   	retq   

0000008004202c99 <page_alloc>:
// Returns NULL if out of free memory.
//
// Hint: use page2kva and memset
struct PageInfo *
page_alloc(int alloc_flags)
{
  8004202c99:	55                   	push   %rbp
  8004202c9a:	48 89 e5             	mov    %rsp,%rbp
  8004202c9d:	48 83 ec 20          	sub    $0x20,%rsp
  8004202ca1:	89 7d ec             	mov    %edi,-0x14(%rbp)
	

	// Fill this function in
	struct PageInfo* page=page_free_list;
  8004202ca4:	48 b8 38 b2 63 04 80 	movabs $0x800463b238,%rax
  8004202cab:	00 00 00 
  8004202cae:	48 8b 00             	mov    (%rax),%rax
  8004202cb1:	48 89 45 f8          	mov    %rax,-0x8(%rbp)
	if(page_free_list == NULL)
  8004202cb5:	48 b8 38 b2 63 04 80 	movabs $0x800463b238,%rax
  8004202cbc:	00 00 00 
  8004202cbf:	48 8b 00             	mov    (%rax),%rax
  8004202cc2:	48 85 c0             	test   %rax,%rax
  8004202cc5:	75 0a                	jne    8004202cd1 <page_alloc+0x38>
        {
                return NULL;
  8004202cc7:	b8 00 00 00 00       	mov    $0x0,%eax
  8004202ccc:	e9 87 00 00 00       	jmpq   8004202d58 <page_alloc+0xbf>
        }
	if(alloc_flags & ALLOC_ZERO)
  8004202cd1:	8b 45 ec             	mov    -0x14(%rbp),%eax
  8004202cd4:	83 e0 01             	and    $0x1,%eax
  8004202cd7:	84 c0                	test   %al,%al
  8004202cd9:	74 2e                	je     8004202d09 <page_alloc+0x70>
	  	memset(page2kva(page),'\0',PGSIZE);
  8004202cdb:	48 8b 45 f8          	mov    -0x8(%rbp),%rax
  8004202cdf:	48 89 c7             	mov    %rax,%rdi
  8004202ce2:	48 b8 2e 1a 20 04 80 	movabs $0x8004201a2e,%rax
  8004202ce9:	00 00 00 
  8004202cec:	ff d0                	callq  *%rax
  8004202cee:	ba 00 10 00 00       	mov    $0x1000,%edx
  8004202cf3:	be 00 00 00 00       	mov    $0x0,%esi
  8004202cf8:	48 89 c7             	mov    %rax,%rdi
  8004202cfb:	48 b8 53 e6 20 04 80 	movabs $0x800420e653,%rax
  8004202d02:	00 00 00 
  8004202d05:	ff d0                	callq  *%rax
  8004202d07:	eb 2c                	jmp    8004202d35 <page_alloc+0x9c>
	else
		memset(page2kva(page),alloc_flags,PGSIZE);
  8004202d09:	48 8b 45 f8          	mov    -0x8(%rbp),%rax
  8004202d0d:	48 89 c7             	mov    %rax,%rdi
  8004202d10:	48 b8 2e 1a 20 04 80 	movabs $0x8004201a2e,%rax
  8004202d17:	00 00 00 
  8004202d1a:	ff d0                	callq  *%rax
  8004202d1c:	8b 4d ec             	mov    -0x14(%rbp),%ecx
  8004202d1f:	ba 00 10 00 00       	mov    $0x1000,%edx
  8004202d24:	89 ce                	mov    %ecx,%esi
  8004202d26:	48 89 c7             	mov    %rax,%rdi
  8004202d29:	48 b8 53 e6 20 04 80 	movabs $0x800420e653,%rax
  8004202d30:	00 00 00 
  8004202d33:	ff d0                	callq  *%rax
	page_free_list=page->pp_link;
  8004202d35:	48 8b 45 f8          	mov    -0x8(%rbp),%rax
  8004202d39:	48 8b 10             	mov    (%rax),%rdx
  8004202d3c:	48 b8 38 b2 63 04 80 	movabs $0x800463b238,%rax
  8004202d43:	00 00 00 
  8004202d46:	48 89 10             	mov    %rdx,(%rax)
	page->pp_link=NULL;
  8004202d49:	48 8b 45 f8          	mov    -0x8(%rbp),%rax
  8004202d4d:	48 c7 00 00 00 00 00 	movq   $0x0,(%rax)
	return page;
  8004202d54:	48 8b 45 f8          	mov    -0x8(%rbp),%rax



}
  8004202d58:	c9                   	leaveq 
  8004202d59:	c3                   	retq   

0000008004202d5a <page_initpp>:
// The result has null links and 0 refcount.
// Note that the corresponding physical page is NOT initialized!
//
	static void
page_initpp(struct PageInfo *pp)
{
  8004202d5a:	55                   	push   %rbp
  8004202d5b:	48 89 e5             	mov    %rsp,%rbp
  8004202d5e:	48 83 ec 10          	sub    $0x10,%rsp
  8004202d62:	48 89 7d f8          	mov    %rdi,-0x8(%rbp)
	memset(pp, 0, sizeof(*pp));
  8004202d66:	48 8b 45 f8          	mov    -0x8(%rbp),%rax
  8004202d6a:	ba 10 00 00 00       	mov    $0x10,%edx
  8004202d6f:	be 00 00 00 00       	mov    $0x0,%esi
  8004202d74:	48 89 c7             	mov    %rax,%rdi
  8004202d77:	48 b8 53 e6 20 04 80 	movabs $0x800420e653,%rax
  8004202d7e:	00 00 00 
  8004202d81:	ff d0                	callq  *%rax
}
  8004202d83:	c9                   	leaveq 
  8004202d84:	c3                   	retq   

0000008004202d85 <page_free>:
// Return a page to the free list.
// (This function should only be called when pp->pp_ref reaches 0.)
//
void
page_free(struct PageInfo *pp)
{
  8004202d85:	55                   	push   %rbp
  8004202d86:	48 89 e5             	mov    %rsp,%rbp
  8004202d89:	48 83 ec 20          	sub    $0x20,%rsp
  8004202d8d:	48 89 7d e8          	mov    %rdi,-0x18(%rbp)
	// Fill this function in
	// Hint: You may want to panic if pp->pp_ref is nonzero or
	// pp->pp_link is not NULL.
	

	struct PageInfo *page=page_free_list;
  8004202d91:	48 b8 38 b2 63 04 80 	movabs $0x800463b238,%rax
  8004202d98:	00 00 00 
  8004202d9b:	48 8b 00             	mov    (%rax),%rax
  8004202d9e:	48 89 45 f8          	mov    %rax,-0x8(%rbp)
        assert(pp->pp_ref ==0 && pp->pp_link ==NULL);
  8004202da2:	48 8b 45 e8          	mov    -0x18(%rbp),%rax
  8004202da6:	0f b7 40 08          	movzwl 0x8(%rax),%eax
  8004202daa:	66 85 c0             	test   %ax,%ax
  8004202dad:	75 0c                	jne    8004202dbb <page_free+0x36>
  8004202daf:	48 8b 45 e8          	mov    -0x18(%rbp),%rax
  8004202db3:	48 8b 00             	mov    (%rax),%rax
  8004202db6:	48 85 c0             	test   %rax,%rax
  8004202db9:	74 35                	je     8004202df0 <page_free+0x6b>
  8004202dbb:	48 b9 b0 74 21 04 80 	movabs $0x80042174b0,%rcx
  8004202dc2:	00 00 00 
  8004202dc5:	48 ba d9 73 21 04 80 	movabs $0x80042173d9,%rdx
  8004202dcc:	00 00 00 
  8004202dcf:	be 24 02 00 00       	mov    $0x224,%esi
  8004202dd4:	48 bf ee 73 21 04 80 	movabs $0x80042173ee,%rdi
  8004202ddb:	00 00 00 
  8004202dde:	b8 00 00 00 00       	mov    $0x0,%eax
  8004202de3:	49 b8 f2 04 20 04 80 	movabs $0x80042004f2,%r8
  8004202dea:	00 00 00 
  8004202ded:	41 ff d0             	callq  *%r8
	pp->pp_link=page;
  8004202df0:	48 8b 45 e8          	mov    -0x18(%rbp),%rax
  8004202df4:	48 8b 55 f8          	mov    -0x8(%rbp),%rdx
  8004202df8:	48 89 10             	mov    %rdx,(%rax)
	page_free_list=pp;
  8004202dfb:	48 b8 38 b2 63 04 80 	movabs $0x800463b238,%rax
  8004202e02:	00 00 00 
  8004202e05:	48 8b 55 e8          	mov    -0x18(%rbp),%rdx
  8004202e09:	48 89 10             	mov    %rdx,(%rax)


}
  8004202e0c:	c9                   	leaveq 
  8004202e0d:	c3                   	retq   

0000008004202e0e <page_decref>:
// Decrement the reference count on a page,
// freeing it if there are no more refs.
//
void
page_decref(struct PageInfo* pp)
{
  8004202e0e:	55                   	push   %rbp
  8004202e0f:	48 89 e5             	mov    %rsp,%rbp
  8004202e12:	48 83 ec 10          	sub    $0x10,%rsp
  8004202e16:	48 89 7d f8          	mov    %rdi,-0x8(%rbp)
	if (--pp->pp_ref == 0)
  8004202e1a:	48 8b 45 f8          	mov    -0x8(%rbp),%rax
  8004202e1e:	0f b7 40 08          	movzwl 0x8(%rax),%eax
  8004202e22:	8d 50 ff             	lea    -0x1(%rax),%edx
  8004202e25:	48 8b 45 f8          	mov    -0x8(%rbp),%rax
  8004202e29:	66 89 50 08          	mov    %dx,0x8(%rax)
  8004202e2d:	48 8b 45 f8          	mov    -0x8(%rbp),%rax
  8004202e31:	0f b7 40 08          	movzwl 0x8(%rax),%eax
  8004202e35:	66 85 c0             	test   %ax,%ax
  8004202e38:	75 13                	jne    8004202e4d <page_decref+0x3f>
		page_free(pp);
  8004202e3a:	48 8b 45 f8          	mov    -0x8(%rbp),%rax
  8004202e3e:	48 89 c7             	mov    %rax,%rdi
  8004202e41:	48 b8 85 2d 20 04 80 	movabs $0x8004202d85,%rax
  8004202e48:	00 00 00 
  8004202e4b:	ff d0                	callq  *%rax
}
  8004202e4d:	c9                   	leaveq 
  8004202e4e:	c3                   	retq   

0000008004202e4f <pml4e_walk>:
// table, page directory,page directory pointer and pml4 entries.
//

pte_t *
pml4e_walk(pml4e_t *pml4e, const void *va, int create)
{
  8004202e4f:	55                   	push   %rbp
  8004202e50:	48 89 e5             	mov    %rsp,%rbp
  8004202e53:	48 83 ec 70          	sub    $0x70,%rsp
  8004202e57:	48 89 7d a8          	mov    %rdi,-0x58(%rbp)
  8004202e5b:	48 89 75 a0          	mov    %rsi,-0x60(%rbp)
  8004202e5f:	89 55 9c             	mov    %edx,-0x64(%rbp)
        physaddr_t pdpeaddr;
        pte_t *result;
        physaddr_t temp;
        uintptr_t la=(uintptr_t) va;
  8004202e62:	48 8b 45 a0          	mov    -0x60(%rbp),%rax
  8004202e66:	48 89 45 f8          	mov    %rax,-0x8(%rbp)
        struct PageInfo *npdpepage=NULL;
  8004202e6a:	48 c7 45 f0 00 00 00 	movq   $0x0,-0x10(%rbp)
  8004202e71:	00 
        pdpe_t *pdpe;
        pml4e+=PML4(la);
  8004202e72:	48 8b 45 f8          	mov    -0x8(%rbp),%rax
  8004202e76:	48 c1 e8 27          	shr    $0x27,%rax
  8004202e7a:	25 ff 01 00 00       	and    $0x1ff,%eax
  8004202e7f:	48 c1 e0 03          	shl    $0x3,%rax
  8004202e83:	48 01 45 a8          	add    %rax,-0x58(%rbp)
        pdpe=NULL;
  8004202e87:	48 c7 45 e8 00 00 00 	movq   $0x0,-0x18(%rbp)
  8004202e8e:	00 
        if(*pml4e!=0)
  8004202e8f:	48 8b 45 a8          	mov    -0x58(%rbp),%rax
  8004202e93:	48 8b 00             	mov    (%rax),%rax
  8004202e96:	48 85 c0             	test   %rax,%rax
  8004202e99:	0f 84 a7 00 00 00    	je     8004202f46 <pml4e_walk+0xf7>
        {
        pdpeaddr=PTE_ADDR(*pml4e);
  8004202e9f:	48 8b 45 a8          	mov    -0x58(%rbp),%rax
  8004202ea3:	48 8b 00             	mov    (%rax),%rax
  8004202ea6:	48 25 00 f0 ff ff    	and    $0xfffffffffffff000,%rax
  8004202eac:	48 89 45 e0          	mov    %rax,-0x20(%rbp)
        pdpe=(pdpe_t *)KADDR(pdpeaddr);
  8004202eb0:	48 8b 45 e0          	mov    -0x20(%rbp),%rax
  8004202eb4:	48 89 45 d8          	mov    %rax,-0x28(%rbp)
  8004202eb8:	48 8b 45 d8          	mov    -0x28(%rbp),%rax
  8004202ebc:	48 c1 e8 0c          	shr    $0xc,%rax
  8004202ec0:	89 45 d4             	mov    %eax,-0x2c(%rbp)
  8004202ec3:	8b 55 d4             	mov    -0x2c(%rbp),%edx
  8004202ec6:	48 b8 e0 c7 63 04 80 	movabs $0x800463c7e0,%rax
  8004202ecd:	00 00 00 
  8004202ed0:	48 8b 00             	mov    (%rax),%rax
  8004202ed3:	48 39 c2             	cmp    %rax,%rdx
  8004202ed6:	72 32                	jb     8004202f0a <pml4e_walk+0xbb>
  8004202ed8:	48 8b 45 d8          	mov    -0x28(%rbp),%rax
  8004202edc:	48 89 c1             	mov    %rax,%rcx
  8004202edf:	48 ba 60 73 21 04 80 	movabs $0x8004217360,%rdx
  8004202ee6:	00 00 00 
  8004202ee9:	be 5d 02 00 00       	mov    $0x25d,%esi
  8004202eee:	48 bf ee 73 21 04 80 	movabs $0x80042173ee,%rdi
  8004202ef5:	00 00 00 
  8004202ef8:	b8 00 00 00 00       	mov    $0x0,%eax
  8004202efd:	49 b8 f2 04 20 04 80 	movabs $0x80042004f2,%r8
  8004202f04:	00 00 00 
  8004202f07:	41 ff d0             	callq  *%r8
  8004202f0a:	48 b8 00 00 00 04 80 	movabs $0x8004000000,%rax
  8004202f11:	00 00 00 
  8004202f14:	48 03 45 d8          	add    -0x28(%rbp),%rax
  8004202f18:	48 89 45 e8          	mov    %rax,-0x18(%rbp)
        result=pdpe_walk(pdpe,(const void*)la,create);
  8004202f1c:	48 8b 4d f8          	mov    -0x8(%rbp),%rcx
  8004202f20:	8b 55 9c             	mov    -0x64(%rbp),%edx
  8004202f23:	48 8b 45 e8          	mov    -0x18(%rbp),%rax
  8004202f27:	48 89 ce             	mov    %rcx,%rsi
  8004202f2a:	48 89 c7             	mov    %rax,%rdi
  8004202f2d:	48 b8 69 30 20 04 80 	movabs $0x8004203069,%rax
  8004202f34:	00 00 00 
  8004202f37:	ff d0                	callq  *%rax
  8004202f39:	48 89 45 c8          	mov    %rax,-0x38(%rbp)
        return result;
  8004202f3d:	48 8b 45 c8          	mov    -0x38(%rbp),%rax
  8004202f41:	e9 21 01 00 00       	jmpq   8004203067 <pml4e_walk+0x218>
        }
        //pdpe+=PDPE(la);
        if(pdpe==NULL && create==false)
  8004202f46:	48 83 7d e8 00       	cmpq   $0x0,-0x18(%rbp)
  8004202f4b:	75 10                	jne    8004202f5d <pml4e_walk+0x10e>
  8004202f4d:	83 7d 9c 00          	cmpl   $0x0,-0x64(%rbp)
  8004202f51:	75 0a                	jne    8004202f5d <pml4e_walk+0x10e>
                return NULL;
  8004202f53:	b8 00 00 00 00       	mov    $0x0,%eax
  8004202f58:	e9 0a 01 00 00       	jmpq   8004203067 <pml4e_walk+0x218>
        else
        {
                        npdpepage=page_alloc(0);    // Should it be 0 or 1????
  8004202f5d:	bf 00 00 00 00       	mov    $0x0,%edi
  8004202f62:	48 b8 99 2c 20 04 80 	movabs $0x8004202c99,%rax
  8004202f69:	00 00 00 
  8004202f6c:	ff d0                	callq  *%rax
  8004202f6e:	48 89 45 f0          	mov    %rax,-0x10(%rbp)
                        //assert(npdpepage!=NULL);
                        if(npdpepage==NULL)
  8004202f72:	48 83 7d f0 00       	cmpq   $0x0,-0x10(%rbp)
  8004202f77:	75 0a                	jne    8004202f83 <pml4e_walk+0x134>
                                return NULL;
  8004202f79:	b8 00 00 00 00       	mov    $0x0,%eax
  8004202f7e:	e9 e4 00 00 00       	jmpq   8004203067 <pml4e_walk+0x218>
                        //assert(npdpepage->pp_ref==0);
                        npdpepage->pp_ref++;
  8004202f83:	48 8b 45 f0          	mov    -0x10(%rbp),%rax
  8004202f87:	0f b7 40 08          	movzwl 0x8(%rax),%eax
  8004202f8b:	8d 50 01             	lea    0x1(%rax),%edx
  8004202f8e:	48 8b 45 f0          	mov    -0x10(%rbp),%rax
  8004202f92:	66 89 50 08          	mov    %dx,0x8(%rax)
                        pdpe=(pdpe_t *)page2kva(npdpepage);
  8004202f96:	48 8b 45 f0          	mov    -0x10(%rbp),%rax
  8004202f9a:	48 89 c7             	mov    %rax,%rdi
  8004202f9d:	48 b8 2e 1a 20 04 80 	movabs $0x8004201a2e,%rax
  8004202fa4:	00 00 00 
  8004202fa7:	ff d0                	callq  *%rax
  8004202fa9:	48 89 45 e8          	mov    %rax,-0x18(%rbp)
                        temp=PADDR(pdpe);
  8004202fad:	48 8b 45 e8          	mov    -0x18(%rbp),%rax
  8004202fb1:	48 89 45 c0          	mov    %rax,-0x40(%rbp)
  8004202fb5:	48 b8 ff ff ff 03 80 	movabs $0x8003ffffff,%rax
  8004202fbc:	00 00 00 
  8004202fbf:	48 39 45 c0          	cmp    %rax,-0x40(%rbp)
  8004202fc3:	77 32                	ja     8004202ff7 <pml4e_walk+0x1a8>
  8004202fc5:	48 8b 45 c0          	mov    -0x40(%rbp),%rax
  8004202fc9:	48 89 c1             	mov    %rax,%rcx
  8004202fcc:	48 ba 88 74 21 04 80 	movabs $0x8004217488,%rdx
  8004202fd3:	00 00 00 
  8004202fd6:	be 6d 02 00 00       	mov    $0x26d,%esi
  8004202fdb:	48 bf ee 73 21 04 80 	movabs $0x80042173ee,%rdi
  8004202fe2:	00 00 00 
  8004202fe5:	b8 00 00 00 00       	mov    $0x0,%eax
  8004202fea:	49 b8 f2 04 20 04 80 	movabs $0x80042004f2,%r8
  8004202ff1:	00 00 00 
  8004202ff4:	41 ff d0             	callq  *%r8
  8004202ff7:	48 b8 00 00 00 fc 7f 	movabs $0xffffff7ffc000000,%rax
  8004202ffe:	ff ff ff 
  8004203001:	48 03 45 c0          	add    -0x40(%rbp),%rax
  8004203005:	48 89 45 b8          	mov    %rax,-0x48(%rbp)
                        *pml4e=(temp | PTE_P | PTE_W |PTE_U);
  8004203009:	48 8b 45 b8          	mov    -0x48(%rbp),%rax
  800420300d:	48 89 c2             	mov    %rax,%rdx
  8004203010:	48 83 ca 07          	or     $0x7,%rdx
  8004203014:	48 8b 45 a8          	mov    -0x58(%rbp),%rax
  8004203018:	48 89 10             	mov    %rdx,(%rax)
        }
        result=pdpe_walk(pdpe,(const void *)la,true);
  800420301b:	48 8b 4d f8          	mov    -0x8(%rbp),%rcx
  800420301f:	48 8b 45 e8          	mov    -0x18(%rbp),%rax
  8004203023:	ba 01 00 00 00       	mov    $0x1,%edx
  8004203028:	48 89 ce             	mov    %rcx,%rsi
  800420302b:	48 89 c7             	mov    %rax,%rdi
  800420302e:	48 b8 69 30 20 04 80 	movabs $0x8004203069,%rax
  8004203035:	00 00 00 
  8004203038:	ff d0                	callq  *%rax
  800420303a:	48 89 45 c8          	mov    %rax,-0x38(%rbp)
        if(result==NULL)
  800420303e:	48 83 7d c8 00       	cmpq   $0x0,-0x38(%rbp)
  8004203043:	75 1e                	jne    8004203063 <pml4e_walk+0x214>
        {
                page_decref(npdpepage);
  8004203045:	48 8b 45 f0          	mov    -0x10(%rbp),%rax
  8004203049:	48 89 c7             	mov    %rax,%rdi
  800420304c:	48 b8 0e 2e 20 04 80 	movabs $0x8004202e0e,%rax
  8004203053:	00 00 00 
  8004203056:	ff d0                	callq  *%rax
                *pml4e=0;
  8004203058:	48 8b 45 a8          	mov    -0x58(%rbp),%rax
  800420305c:	48 c7 00 00 00 00 00 	movq   $0x0,(%rax)
        }
        return result;
  8004203063:	48 8b 45 c8          	mov    -0x38(%rbp),%rax
}
  8004203067:	c9                   	leaveq 
  8004203068:	c3                   	retq   

0000008004203069 <pdpe_walk>:
// The programming logic in this function is similar to pml4e_walk.
// It calls the pgdir_walk which returns the page_table entry pointer.
// Hints are the same as in pml4e_walk
pte_t *
pdpe_walk(pdpe_t *pdpe,const void *va,int create)
{
  8004203069:	55                   	push   %rbp
  800420306a:	48 89 e5             	mov    %rsp,%rbp
  800420306d:	48 83 ec 70          	sub    $0x70,%rsp
  8004203071:	48 89 7d a8          	mov    %rdi,-0x58(%rbp)
  8004203075:	48 89 75 a0          	mov    %rsi,-0x60(%rbp)
  8004203079:	89 55 9c             	mov    %edx,-0x64(%rbp)
	physaddr_t pdeaddr,temp;
        pte_t *result;
        uintptr_t la=(uintptr_t) va;
  800420307c:	48 8b 45 a0          	mov    -0x60(%rbp),%rax
  8004203080:	48 89 45 f8          	mov    %rax,-0x8(%rbp)
        struct PageInfo *npdepage=NULL;
  8004203084:	48 c7 45 f0 00 00 00 	movq   $0x0,-0x10(%rbp)
  800420308b:	00 
        pde_t *pde;
        pdpe+=PDPE(la);
  800420308c:	48 8b 45 f8          	mov    -0x8(%rbp),%rax
  8004203090:	48 c1 e8 1e          	shr    $0x1e,%rax
  8004203094:	25 ff 01 00 00       	and    $0x1ff,%eax
  8004203099:	48 c1 e0 03          	shl    $0x3,%rax
  800420309d:	48 01 45 a8          	add    %rax,-0x58(%rbp)
        pde=NULL;
  80042030a1:	48 c7 45 e8 00 00 00 	movq   $0x0,-0x18(%rbp)
  80042030a8:	00 
        if(*pdpe!=0)
  80042030a9:	48 8b 45 a8          	mov    -0x58(%rbp),%rax
  80042030ad:	48 8b 00             	mov    (%rax),%rax
  80042030b0:	48 85 c0             	test   %rax,%rax
  80042030b3:	0f 84 a7 00 00 00    	je     8004203160 <pdpe_walk+0xf7>
        {
                pdeaddr=PTE_ADDR(*pdpe);
  80042030b9:	48 8b 45 a8          	mov    -0x58(%rbp),%rax
  80042030bd:	48 8b 00             	mov    (%rax),%rax
  80042030c0:	48 25 00 f0 ff ff    	and    $0xfffffffffffff000,%rax
  80042030c6:	48 89 45 e0          	mov    %rax,-0x20(%rbp)
                pde=(pde_t*)KADDR(pdeaddr);
  80042030ca:	48 8b 45 e0          	mov    -0x20(%rbp),%rax
  80042030ce:	48 89 45 d8          	mov    %rax,-0x28(%rbp)
  80042030d2:	48 8b 45 d8          	mov    -0x28(%rbp),%rax
  80042030d6:	48 c1 e8 0c          	shr    $0xc,%rax
  80042030da:	89 45 d4             	mov    %eax,-0x2c(%rbp)
  80042030dd:	8b 55 d4             	mov    -0x2c(%rbp),%edx
  80042030e0:	48 b8 e0 c7 63 04 80 	movabs $0x800463c7e0,%rax
  80042030e7:	00 00 00 
  80042030ea:	48 8b 00             	mov    (%rax),%rax
  80042030ed:	48 39 c2             	cmp    %rax,%rdx
  80042030f0:	72 32                	jb     8004203124 <pdpe_walk+0xbb>
  80042030f2:	48 8b 45 d8          	mov    -0x28(%rbp),%rax
  80042030f6:	48 89 c1             	mov    %rax,%rcx
  80042030f9:	48 ba 60 73 21 04 80 	movabs $0x8004217360,%rdx
  8004203100:	00 00 00 
  8004203103:	be 8b 02 00 00       	mov    $0x28b,%esi
  8004203108:	48 bf ee 73 21 04 80 	movabs $0x80042173ee,%rdi
  800420310f:	00 00 00 
  8004203112:	b8 00 00 00 00       	mov    $0x0,%eax
  8004203117:	49 b8 f2 04 20 04 80 	movabs $0x80042004f2,%r8
  800420311e:	00 00 00 
  8004203121:	41 ff d0             	callq  *%r8
  8004203124:	48 b8 00 00 00 04 80 	movabs $0x8004000000,%rax
  800420312b:	00 00 00 
  800420312e:	48 03 45 d8          	add    -0x28(%rbp),%rax
  8004203132:	48 89 45 e8          	mov    %rax,-0x18(%rbp)
                result=pgdir_walk(pde,(const void*)la,create);
  8004203136:	48 8b 4d f8          	mov    -0x8(%rbp),%rcx
  800420313a:	8b 55 9c             	mov    -0x64(%rbp),%edx
  800420313d:	48 8b 45 e8          	mov    -0x18(%rbp),%rax
  8004203141:	48 89 ce             	mov    %rcx,%rsi
  8004203144:	48 89 c7             	mov    %rax,%rdi
  8004203147:	48 b8 c5 32 20 04 80 	movabs $0x80042032c5,%rax
  800420314e:	00 00 00 
  8004203151:	ff d0                	callq  *%rax
  8004203153:	48 89 45 c8          	mov    %rax,-0x38(%rbp)
                return result;
  8004203157:	48 8b 45 c8          	mov    -0x38(%rbp),%rax
  800420315b:	e9 63 01 00 00       	jmpq   80042032c3 <pdpe_walk+0x25a>

        }
//      pde=(uint64_t*)*pdpe;
        //pdpe+=PDPE(la);
        if(pde==NULL && create==false)
  8004203160:	48 83 7d e8 00       	cmpq   $0x0,-0x18(%rbp)
  8004203165:	75 10                	jne    8004203177 <pdpe_walk+0x10e>
  8004203167:	83 7d 9c 00          	cmpl   $0x0,-0x64(%rbp)
  800420316b:	75 0a                	jne    8004203177 <pdpe_walk+0x10e>
                return NULL;
  800420316d:	b8 00 00 00 00       	mov    $0x0,%eax
  8004203172:	e9 4c 01 00 00       	jmpq   80042032c3 <pdpe_walk+0x25a>
        else
        {
                        npdepage=page_alloc(0);
  8004203177:	bf 00 00 00 00       	mov    $0x0,%edi
  800420317c:	48 b8 99 2c 20 04 80 	movabs $0x8004202c99,%rax
  8004203183:	00 00 00 
  8004203186:	ff d0                	callq  *%rax
  8004203188:	48 89 45 f0          	mov    %rax,-0x10(%rbp)
                        //assert(npdepage!=NULL);
                        if(npdepage==NULL)
  800420318c:	48 83 7d f0 00       	cmpq   $0x0,-0x10(%rbp)
  8004203191:	75 0a                	jne    800420319d <pdpe_walk+0x134>
                                return NULL;
  8004203193:	b8 00 00 00 00       	mov    $0x0,%eax
  8004203198:	e9 26 01 00 00       	jmpq   80042032c3 <pdpe_walk+0x25a>
                        assert(npdepage->pp_ref==0);
  800420319d:	48 8b 45 f0          	mov    -0x10(%rbp),%rax
  80042031a1:	0f b7 40 08          	movzwl 0x8(%rax),%eax
  80042031a5:	66 85 c0             	test   %ax,%ax
  80042031a8:	74 35                	je     80042031df <pdpe_walk+0x176>
  80042031aa:	48 b9 d5 74 21 04 80 	movabs $0x80042174d5,%rcx
  80042031b1:	00 00 00 
  80042031b4:	48 ba d9 73 21 04 80 	movabs $0x80042173d9,%rdx
  80042031bb:	00 00 00 
  80042031be:	be 9a 02 00 00       	mov    $0x29a,%esi
  80042031c3:	48 bf ee 73 21 04 80 	movabs $0x80042173ee,%rdi
  80042031ca:	00 00 00 
  80042031cd:	b8 00 00 00 00       	mov    $0x0,%eax
  80042031d2:	49 b8 f2 04 20 04 80 	movabs $0x80042004f2,%r8
  80042031d9:	00 00 00 
  80042031dc:	41 ff d0             	callq  *%r8
                        npdepage->pp_ref=npdepage->pp_ref+1;
  80042031df:	48 8b 45 f0          	mov    -0x10(%rbp),%rax
  80042031e3:	0f b7 40 08          	movzwl 0x8(%rax),%eax
  80042031e7:	8d 50 01             	lea    0x1(%rax),%edx
  80042031ea:	48 8b 45 f0          	mov    -0x10(%rbp),%rax
  80042031ee:	66 89 50 08          	mov    %dx,0x8(%rax)
                        pde=(pde_t *)page2kva(npdepage);
  80042031f2:	48 8b 45 f0          	mov    -0x10(%rbp),%rax
  80042031f6:	48 89 c7             	mov    %rax,%rdi
  80042031f9:	48 b8 2e 1a 20 04 80 	movabs $0x8004201a2e,%rax
  8004203200:	00 00 00 
  8004203203:	ff d0                	callq  *%rax
  8004203205:	48 89 45 e8          	mov    %rax,-0x18(%rbp)
                        temp=PADDR(pde);
  8004203209:	48 8b 45 e8          	mov    -0x18(%rbp),%rax
  800420320d:	48 89 45 c0          	mov    %rax,-0x40(%rbp)
  8004203211:	48 b8 ff ff ff 03 80 	movabs $0x8003ffffff,%rax
  8004203218:	00 00 00 
  800420321b:	48 39 45 c0          	cmp    %rax,-0x40(%rbp)
  800420321f:	77 32                	ja     8004203253 <pdpe_walk+0x1ea>
  8004203221:	48 8b 45 c0          	mov    -0x40(%rbp),%rax
  8004203225:	48 89 c1             	mov    %rax,%rcx
  8004203228:	48 ba 88 74 21 04 80 	movabs $0x8004217488,%rdx
  800420322f:	00 00 00 
  8004203232:	be 9d 02 00 00       	mov    $0x29d,%esi
  8004203237:	48 bf ee 73 21 04 80 	movabs $0x80042173ee,%rdi
  800420323e:	00 00 00 
  8004203241:	b8 00 00 00 00       	mov    $0x0,%eax
  8004203246:	49 b8 f2 04 20 04 80 	movabs $0x80042004f2,%r8
  800420324d:	00 00 00 
  8004203250:	41 ff d0             	callq  *%r8
  8004203253:	48 b8 00 00 00 fc 7f 	movabs $0xffffff7ffc000000,%rax
  800420325a:	ff ff ff 
  800420325d:	48 03 45 c0          	add    -0x40(%rbp),%rax
  8004203261:	48 89 45 b8          	mov    %rax,-0x48(%rbp)
                        *pdpe=(temp | PTE_P | PTE_W | PTE_U);
  8004203265:	48 8b 45 b8          	mov    -0x48(%rbp),%rax
  8004203269:	48 89 c2             	mov    %rax,%rdx
  800420326c:	48 83 ca 07          	or     $0x7,%rdx
  8004203270:	48 8b 45 a8          	mov    -0x58(%rbp),%rax
  8004203274:	48 89 10             	mov    %rdx,(%rax)

                        //*pdpe=(uint64_t)pde;
        }
        result=pgdir_walk(pde,(const void*)la,true);
  8004203277:	48 8b 4d f8          	mov    -0x8(%rbp),%rcx
  800420327b:	48 8b 45 e8          	mov    -0x18(%rbp),%rax
  800420327f:	ba 01 00 00 00       	mov    $0x1,%edx
  8004203284:	48 89 ce             	mov    %rcx,%rsi
  8004203287:	48 89 c7             	mov    %rax,%rdi
  800420328a:	48 b8 c5 32 20 04 80 	movabs $0x80042032c5,%rax
  8004203291:	00 00 00 
  8004203294:	ff d0                	callq  *%rax
  8004203296:	48 89 45 c8          	mov    %rax,-0x38(%rbp)
        if(result==NULL)
  800420329a:	48 83 7d c8 00       	cmpq   $0x0,-0x38(%rbp)
  800420329f:	75 1e                	jne    80042032bf <pdpe_walk+0x256>
        {
                page_decref(npdepage);
  80042032a1:	48 8b 45 f0          	mov    -0x10(%rbp),%rax
  80042032a5:	48 89 c7             	mov    %rax,%rdi
  80042032a8:	48 b8 0e 2e 20 04 80 	movabs $0x8004202e0e,%rax
  80042032af:	00 00 00 
  80042032b2:	ff d0                	callq  *%rax
                //page_free(npdepage);
                *pdpe=0;
  80042032b4:	48 8b 45 a8          	mov    -0x58(%rbp),%rax
  80042032b8:	48 c7 00 00 00 00 00 	movq   $0x0,(%rax)
        }
        return result;
  80042032bf:	48 8b 45 c8          	mov    -0x38(%rbp),%rax
}
  80042032c3:	c9                   	leaveq 
  80042032c4:	c3                   	retq   

00000080042032c5 <pgdir_walk>:
// a pointer to the page table entry (PTE). 
// The programming logic and the hints are the same as pml4e_walk
// and pdpe_walk.

pte_t *pgdir_walk(pde_t *pgdir, const void *va, int create)
{
  80042032c5:	55                   	push   %rbp
  80042032c6:	48 89 e5             	mov    %rsp,%rbp
  80042032c9:	48 83 ec 70          	sub    $0x70,%rsp
  80042032cd:	48 89 7d a8          	mov    %rdi,-0x58(%rbp)
  80042032d1:	48 89 75 a0          	mov    %rsi,-0x60(%rbp)
  80042032d5:	89 55 9c             	mov    %edx,-0x64(%rbp)

	physaddr_t pteaddr,temp,temp1;
        pte_t *resultptr;
        pte_t *result;
        pte_t *pte;
        uintptr_t la=(uintptr_t) va;
  80042032d8:	48 8b 45 a0          	mov    -0x60(%rbp),%rax
  80042032dc:	48 89 45 f8          	mov    %rax,-0x8(%rbp)
        struct PageInfo *nptepage=NULL;
  80042032e0:	48 c7 45 f0 00 00 00 	movq   $0x0,-0x10(%rbp)
  80042032e7:	00 
        pgdir+=PDX(la);
  80042032e8:	48 8b 45 f8          	mov    -0x8(%rbp),%rax
  80042032ec:	48 c1 e8 15          	shr    $0x15,%rax
  80042032f0:	25 ff 01 00 00       	and    $0x1ff,%eax
  80042032f5:	48 c1 e0 03          	shl    $0x3,%rax
  80042032f9:	48 01 45 a8          	add    %rax,-0x58(%rbp)
        pte=NULL;
  80042032fd:	48 c7 45 e8 00 00 00 	movq   $0x0,-0x18(%rbp)
  8004203304:	00 
        if(*pgdir!=0)
  8004203305:	48 8b 45 a8          	mov    -0x58(%rbp),%rax
  8004203309:	48 8b 00             	mov    (%rax),%rax
  800420330c:	48 85 c0             	test   %rax,%rax
  800420330f:	0f 84 9f 00 00 00    	je     80042033b4 <pgdir_walk+0xef>
        {
                pteaddr=PTE_ADDR(*pgdir);
  8004203315:	48 8b 45 a8          	mov    -0x58(%rbp),%rax
  8004203319:	48 8b 00             	mov    (%rax),%rax
  800420331c:	48 25 00 f0 ff ff    	and    $0xfffffffffffff000,%rax
  8004203322:	48 89 45 e0          	mov    %rax,-0x20(%rbp)
                pte=(pte_t *)KADDR(pteaddr);
  8004203326:	48 8b 45 e0          	mov    -0x20(%rbp),%rax
  800420332a:	48 89 45 d8          	mov    %rax,-0x28(%rbp)
  800420332e:	48 8b 45 d8          	mov    -0x28(%rbp),%rax
  8004203332:	48 c1 e8 0c          	shr    $0xc,%rax
  8004203336:	89 45 d4             	mov    %eax,-0x2c(%rbp)
  8004203339:	8b 55 d4             	mov    -0x2c(%rbp),%edx
  800420333c:	48 b8 e0 c7 63 04 80 	movabs $0x800463c7e0,%rax
  8004203343:	00 00 00 
  8004203346:	48 8b 00             	mov    (%rax),%rax
  8004203349:	48 39 c2             	cmp    %rax,%rdx
  800420334c:	72 32                	jb     8004203380 <pgdir_walk+0xbb>
  800420334e:	48 8b 45 d8          	mov    -0x28(%rbp),%rax
  8004203352:	48 89 c1             	mov    %rax,%rcx
  8004203355:	48 ba 60 73 21 04 80 	movabs $0x8004217360,%rdx
  800420335c:	00 00 00 
  800420335f:	be be 02 00 00       	mov    $0x2be,%esi
  8004203364:	48 bf ee 73 21 04 80 	movabs $0x80042173ee,%rdi
  800420336b:	00 00 00 
  800420336e:	b8 00 00 00 00       	mov    $0x0,%eax
  8004203373:	49 b8 f2 04 20 04 80 	movabs $0x80042004f2,%r8
  800420337a:	00 00 00 
  800420337d:	41 ff d0             	callq  *%r8
  8004203380:	48 b8 00 00 00 04 80 	movabs $0x8004000000,%rax
  8004203387:	00 00 00 
  800420338a:	48 03 45 d8          	add    -0x28(%rbp),%rax
  800420338e:	48 89 45 e8          	mov    %rax,-0x18(%rbp)
                result=pte+PTX(la);
  8004203392:	48 8b 45 f8          	mov    -0x8(%rbp),%rax
  8004203396:	48 c1 e8 0c          	shr    $0xc,%rax
  800420339a:	25 ff 01 00 00       	and    $0x1ff,%eax
  800420339f:	48 c1 e0 03          	shl    $0x3,%rax
  80042033a3:	48 03 45 e8          	add    -0x18(%rbp),%rax
  80042033a7:	48 89 45 c8          	mov    %rax,-0x38(%rbp)
                return result;
  80042033ab:	48 8b 45 c8          	mov    -0x38(%rbp),%rax
  80042033af:	e9 fc 00 00 00       	jmpq   80042034b0 <pgdir_walk+0x1eb>
        //pte_t *pte=(uint64_t *)*pgdir;
        //pdpe+=PDPE(la);

        }
        if(pte==NULL && create==false)
  80042033b4:	48 83 7d e8 00       	cmpq   $0x0,-0x18(%rbp)
  80042033b9:	75 10                	jne    80042033cb <pgdir_walk+0x106>
  80042033bb:	83 7d 9c 00          	cmpl   $0x0,-0x64(%rbp)
  80042033bf:	75 0a                	jne    80042033cb <pgdir_walk+0x106>
                return NULL;
  80042033c1:	b8 00 00 00 00       	mov    $0x0,%eax
  80042033c6:	e9 e5 00 00 00       	jmpq   80042034b0 <pgdir_walk+0x1eb>
        else
        {
                        nptepage=page_alloc(0);
  80042033cb:	bf 00 00 00 00       	mov    $0x0,%edi
  80042033d0:	48 b8 99 2c 20 04 80 	movabs $0x8004202c99,%rax
  80042033d7:	00 00 00 
  80042033da:	ff d0                	callq  *%rax
  80042033dc:	48 89 45 f0          	mov    %rax,-0x10(%rbp)
                       // assert(nptepage!=NULL);
                        if(nptepage==NULL)
  80042033e0:	48 83 7d f0 00       	cmpq   $0x0,-0x10(%rbp)
  80042033e5:	75 0a                	jne    80042033f1 <pgdir_walk+0x12c>
                                return NULL;
  80042033e7:	b8 00 00 00 00       	mov    $0x0,%eax
  80042033ec:	e9 bf 00 00 00       	jmpq   80042034b0 <pgdir_walk+0x1eb>
                        //assert(nptepage->pp_ref==0);
                        nptepage->pp_ref++;
  80042033f1:	48 8b 45 f0          	mov    -0x10(%rbp),%rax
  80042033f5:	0f b7 40 08          	movzwl 0x8(%rax),%eax
  80042033f9:	8d 50 01             	lea    0x1(%rax),%edx
  80042033fc:	48 8b 45 f0          	mov    -0x10(%rbp),%rax
  8004203400:	66 89 50 08          	mov    %dx,0x8(%rax)
                        pte=(pte_t *)page2kva(nptepage);
  8004203404:	48 8b 45 f0          	mov    -0x10(%rbp),%rax
  8004203408:	48 89 c7             	mov    %rax,%rdi
  800420340b:	48 b8 2e 1a 20 04 80 	movabs $0x8004201a2e,%rax
  8004203412:	00 00 00 
  8004203415:	ff d0                	callq  *%rax
  8004203417:	48 89 45 e8          	mov    %rax,-0x18(%rbp)
                        temp=PADDR(pte);
  800420341b:	48 8b 45 e8          	mov    -0x18(%rbp),%rax
  800420341f:	48 89 45 c0          	mov    %rax,-0x40(%rbp)
  8004203423:	48 b8 ff ff ff 03 80 	movabs $0x8003ffffff,%rax
  800420342a:	00 00 00 
  800420342d:	48 39 45 c0          	cmp    %rax,-0x40(%rbp)
  8004203431:	77 32                	ja     8004203465 <pgdir_walk+0x1a0>
  8004203433:	48 8b 45 c0          	mov    -0x40(%rbp),%rax
  8004203437:	48 89 c1             	mov    %rax,%rcx
  800420343a:	48 ba 88 74 21 04 80 	movabs $0x8004217488,%rdx
  8004203441:	00 00 00 
  8004203444:	be d0 02 00 00       	mov    $0x2d0,%esi
  8004203449:	48 bf ee 73 21 04 80 	movabs $0x80042173ee,%rdi
  8004203450:	00 00 00 
  8004203453:	b8 00 00 00 00       	mov    $0x0,%eax
  8004203458:	49 b8 f2 04 20 04 80 	movabs $0x80042004f2,%r8
  800420345f:	00 00 00 
  8004203462:	41 ff d0             	callq  *%r8
  8004203465:	48 b8 00 00 00 fc 7f 	movabs $0xffffff7ffc000000,%rax
  800420346c:	ff ff ff 
  800420346f:	48 03 45 c0          	add    -0x40(%rbp),%rax
  8004203473:	48 89 45 b8          	mov    %rax,-0x48(%rbp)
                        temp1=PTE_ADDR(temp);
  8004203477:	48 8b 45 b8          	mov    -0x48(%rbp),%rax
  800420347b:	48 25 00 f0 ff ff    	and    $0xfffffffffffff000,%rax
  8004203481:	48 89 45 b0          	mov    %rax,-0x50(%rbp)
                        *pgdir=(temp1 | PTE_P | PTE_W | PTE_U);
  8004203485:	48 8b 45 b0          	mov    -0x50(%rbp),%rax
  8004203489:	48 89 c2             	mov    %rax,%rdx
  800420348c:	48 83 ca 07          	or     $0x7,%rdx
  8004203490:	48 8b 45 a8          	mov    -0x58(%rbp),%rax
  8004203494:	48 89 10             	mov    %rdx,(%rax)
                        //*pgdir=(uint64_t)pte;
        }
        pte+=PTX(la);
  8004203497:	48 8b 45 f8          	mov    -0x8(%rbp),%rax
  800420349b:	48 c1 e8 0c          	shr    $0xc,%rax
  800420349f:	25 ff 01 00 00       	and    $0x1ff,%eax
  80042034a4:	48 c1 e0 03          	shl    $0x3,%rax
  80042034a8:	48 01 45 e8          	add    %rax,-0x18(%rbp)
        //result=(pte_t *)*pte;
        //assert(pte==NULL);
        return pte;
  80042034ac:	48 8b 45 e8          	mov    -0x18(%rbp),%rax
}
  80042034b0:	c9                   	leaveq 
  80042034b1:	c3                   	retq   

00000080042034b2 <boot_map_region>:
// above UTOP. As such, it should *not* change the pp_ref field on the
// mapped pages.
//
// Hint: the TA solution uses pml4e_walk
static void boot_map_region(pml4e_t *pml4e, uintptr_t la, size_t size, physaddr_t pa, int perm)
{
  80042034b2:	55                   	push   %rbp
  80042034b3:	48 89 e5             	mov    %rsp,%rbp
  80042034b6:	48 83 ec 50          	sub    $0x50,%rsp
  80042034ba:	48 89 7d d8          	mov    %rdi,-0x28(%rbp)
  80042034be:	48 89 75 d0          	mov    %rsi,-0x30(%rbp)
  80042034c2:	48 89 55 c8          	mov    %rdx,-0x38(%rbp)
  80042034c6:	48 89 4d c0          	mov    %rcx,-0x40(%rbp)
  80042034ca:	44 89 45 bc          	mov    %r8d,-0x44(%rbp)

	uint64_t noe;
	pte_t *temp;
	int i;
	physaddr_t temp1;
        noe=(uint64_t)size/PGSIZE;
  80042034ce:	48 8b 45 c8          	mov    -0x38(%rbp),%rax
  80042034d2:	48 c1 e8 0c          	shr    $0xc,%rax
  80042034d6:	48 89 45 f0          	mov    %rax,-0x10(%rbp)
        for(i=0;i<noe;i++)
  80042034da:	c7 45 fc 00 00 00 00 	movl   $0x0,-0x4(%rbp)
  80042034e1:	eb 5b                	jmp    800420353e <boot_map_region+0x8c>
        {
                temp=pml4e_walk(pml4e,(void*)la,1);
  80042034e3:	48 8b 4d d0          	mov    -0x30(%rbp),%rcx
  80042034e7:	48 8b 45 d8          	mov    -0x28(%rbp),%rax
  80042034eb:	ba 01 00 00 00       	mov    $0x1,%edx
  80042034f0:	48 89 ce             	mov    %rcx,%rsi
  80042034f3:	48 89 c7             	mov    %rax,%rdi
  80042034f6:	48 b8 4f 2e 20 04 80 	movabs $0x8004202e4f,%rax
  80042034fd:	00 00 00 
  8004203500:	ff d0                	callq  *%rax
  8004203502:	48 89 45 e8          	mov    %rax,-0x18(%rbp)
                temp1=(pa+(i*PGSIZE));
  8004203506:	8b 45 fc             	mov    -0x4(%rbp),%eax
  8004203509:	c1 e0 0c             	shl    $0xc,%eax
  800420350c:	48 98                	cltq   
  800420350e:	48 03 45 c0          	add    -0x40(%rbp),%rax
  8004203512:	48 89 45 e0          	mov    %rax,-0x20(%rbp)
                //temp1=temp1<<12;
                temp1=(temp1|perm|PTE_P);
  8004203516:	8b 45 bc             	mov    -0x44(%rbp),%eax
  8004203519:	48 98                	cltq   
  800420351b:	48 0b 45 e0          	or     -0x20(%rbp),%rax
  800420351f:	48 83 c8 01          	or     $0x1,%rax
  8004203523:	48 89 45 e0          	mov    %rax,-0x20(%rbp)
                *temp=temp1;
  8004203527:	48 8b 45 e8          	mov    -0x18(%rbp),%rax
  800420352b:	48 8b 55 e0          	mov    -0x20(%rbp),%rdx
  800420352f:	48 89 10             	mov    %rdx,(%rax)
                la+=PGSIZE;
  8004203532:	48 81 45 d0 00 10 00 	addq   $0x1000,-0x30(%rbp)
  8004203539:	00 
	uint64_t noe;
	pte_t *temp;
	int i;
	physaddr_t temp1;
        noe=(uint64_t)size/PGSIZE;
        for(i=0;i<noe;i++)
  800420353a:	83 45 fc 01          	addl   $0x1,-0x4(%rbp)
  800420353e:	8b 45 fc             	mov    -0x4(%rbp),%eax
  8004203541:	48 98                	cltq   
  8004203543:	48 3b 45 f0          	cmp    -0x10(%rbp),%rax
  8004203547:	72 9a                	jb     80042034e3 <boot_map_region+0x31>

        }



}
  8004203549:	c9                   	leaveq 
  800420354a:	c3                   	retq   

000000800420354b <page_insert>:
// Hint: The TA solution is implemented using pml4e_walk, page_remove,
// and page2pa.
//
int
page_insert(pml4e_t *pml4e, struct PageInfo *pp, void *va, int perm)
{
  800420354b:	55                   	push   %rbp
  800420354c:	48 89 e5             	mov    %rsp,%rbp
  800420354f:	48 83 ec 40          	sub    $0x40,%rsp
  8004203553:	48 89 7d d8          	mov    %rdi,-0x28(%rbp)
  8004203557:	48 89 75 d0          	mov    %rsi,-0x30(%rbp)
  800420355b:	48 89 55 c8          	mov    %rdx,-0x38(%rbp)
  800420355f:	89 4d c4             	mov    %ecx,-0x3c(%rbp)
	//struct PageInfo* lookup;
       // pte_t *ptestore;
        pte_t *entry;
        uint64_t pte;
	physaddr_t pg_entry,ppconv;
        entry=pml4e_walk(pml4e,va,1);
  8004203562:	48 8b 4d c8          	mov    -0x38(%rbp),%rcx
  8004203566:	48 8b 45 d8          	mov    -0x28(%rbp),%rax
  800420356a:	ba 01 00 00 00       	mov    $0x1,%edx
  800420356f:	48 89 ce             	mov    %rcx,%rsi
  8004203572:	48 89 c7             	mov    %rax,%rdi
  8004203575:	48 b8 4f 2e 20 04 80 	movabs $0x8004202e4f,%rax
  800420357c:	00 00 00 
  800420357f:	ff d0                	callq  *%rax
  8004203581:	48 89 45 f8          	mov    %rax,-0x8(%rbp)
	if(entry!=NULL)
  8004203585:	48 83 7d f8 00       	cmpq   $0x0,-0x8(%rbp)
  800420358a:	0f 84 ef 00 00 00    	je     800420367f <page_insert+0x134>
        {
		pg_entry = PTE_ADDR(*entry);
  8004203590:	48 8b 45 f8          	mov    -0x8(%rbp),%rax
  8004203594:	48 8b 00             	mov    (%rax),%rax
  8004203597:	48 25 00 f0 ff ff    	and    $0xfffffffffffff000,%rax
  800420359d:	48 89 45 f0          	mov    %rax,-0x10(%rbp)
                ppconv = page2pa(pp);
  80042035a1:	48 8b 45 d0          	mov    -0x30(%rbp),%rax
  80042035a5:	48 89 c7             	mov    %rax,%rdi
  80042035a8:	48 b8 98 19 20 04 80 	movabs $0x8004201998,%rax
  80042035af:	00 00 00 
  80042035b2:	ff d0                	callq  *%rax
  80042035b4:	48 89 45 e8          	mov    %rax,-0x18(%rbp)
                if (pg_entry == ppconv)
  80042035b8:	48 8b 45 f0          	mov    -0x10(%rbp),%rax
  80042035bc:	48 3b 45 e8          	cmp    -0x18(%rbp),%rax
  80042035c0:	75 3b                	jne    80042035fd <page_insert+0xb2>
                {
                	*entry = pg_entry|perm|PTE_P;
  80042035c2:	8b 45 c4             	mov    -0x3c(%rbp),%eax
  80042035c5:	48 98                	cltq   
  80042035c7:	48 0b 45 f0          	or     -0x10(%rbp),%rax
  80042035cb:	48 89 c2             	mov    %rax,%rdx
  80042035ce:	48 83 ca 01          	or     $0x1,%rdx
  80042035d2:	48 8b 45 f8          	mov    -0x8(%rbp),%rax
  80042035d6:	48 89 10             	mov    %rdx,(%rax)
                        tlb_invalidate(pml4e, va);
  80042035d9:	48 8b 55 c8          	mov    -0x38(%rbp),%rdx
  80042035dd:	48 8b 45 d8          	mov    -0x28(%rbp),%rax
  80042035e1:	48 89 d6             	mov    %rdx,%rsi
  80042035e4:	48 89 c7             	mov    %rax,%rdi
  80042035e7:	48 b8 79 37 20 04 80 	movabs $0x8004203779,%rax
  80042035ee:	00 00 00 
  80042035f1:	ff d0                	callq  *%rax
                        return 0;
  80042035f3:	b8 00 00 00 00       	mov    $0x0,%eax
  80042035f8:	e9 87 00 00 00       	jmpq   8004203684 <page_insert+0x139>
                }
                if(*entry!=0)
  80042035fd:	48 8b 45 f8          	mov    -0x8(%rbp),%rax
  8004203601:	48 8b 00             	mov    (%rax),%rax
  8004203604:	48 85 c0             	test   %rax,%rax
  8004203607:	74 34                	je     800420363d <page_insert+0xf2>
		{
            		page_remove(pml4e, va);
  8004203609:	48 8b 55 c8          	mov    -0x38(%rbp),%rdx
  800420360d:	48 8b 45 d8          	mov    -0x28(%rbp),%rax
  8004203611:	48 89 d6             	mov    %rdx,%rsi
  8004203614:	48 89 c7             	mov    %rax,%rdi
  8004203617:	48 b8 03 37 20 04 80 	movabs $0x8004203703,%rax
  800420361e:	00 00 00 
  8004203621:	ff d0                	callq  *%rax
            		tlb_invalidate(pml4e, va);
  8004203623:	48 8b 55 c8          	mov    -0x38(%rbp),%rdx
  8004203627:	48 8b 45 d8          	mov    -0x28(%rbp),%rax
  800420362b:	48 89 d6             	mov    %rdx,%rsi
  800420362e:	48 89 c7             	mov    %rax,%rdi
  8004203631:	48 b8 79 37 20 04 80 	movabs $0x8004203779,%rax
  8004203638:	00 00 00 
  800420363b:	ff d0                	callq  *%rax
                }
		*entry = ppconv;
  800420363d:	48 8b 45 f8          	mov    -0x8(%rbp),%rax
  8004203641:	48 8b 55 e8          	mov    -0x18(%rbp),%rdx
  8004203645:	48 89 10             	mov    %rdx,(%rax)
        	*entry= (*entry) | perm | PTE_P;
  8004203648:	48 8b 45 f8          	mov    -0x8(%rbp),%rax
  800420364c:	48 8b 10             	mov    (%rax),%rdx
  800420364f:	8b 45 c4             	mov    -0x3c(%rbp),%eax
  8004203652:	48 98                	cltq   
  8004203654:	48 09 d0             	or     %rdx,%rax
  8004203657:	48 89 c2             	mov    %rax,%rdx
  800420365a:	48 83 ca 01          	or     $0x1,%rdx
  800420365e:	48 8b 45 f8          	mov    -0x8(%rbp),%rax
  8004203662:	48 89 10             	mov    %rdx,(%rax)
        	pp->pp_ref = pp->pp_ref + 1;
  8004203665:	48 8b 45 d0          	mov    -0x30(%rbp),%rax
  8004203669:	0f b7 40 08          	movzwl 0x8(%rax),%eax
  800420366d:	8d 50 01             	lea    0x1(%rax),%edx
  8004203670:	48 8b 45 d0          	mov    -0x30(%rbp),%rax
  8004203674:	66 89 50 08          	mov    %dx,0x8(%rax)
    		return 0;
  8004203678:	b8 00 00 00 00       	mov    $0x0,%eax
  800420367d:	eb 05                	jmp    8004203684 <page_insert+0x139>
   	}	 
    	return -E_NO_MEM;
  800420367f:	b8 fc ff ff ff       	mov    $0xfffffffc,%eax
}
  8004203684:	c9                   	leaveq 
  8004203685:	c3                   	retq   

0000008004203686 <page_lookup>:
//
// Hint: the TA solution uses pml4e_walk and pa2page.
//
struct PageInfo *
page_lookup(pml4e_t *pml4e, void *va, pte_t **pte_store)
{
  8004203686:	55                   	push   %rbp
  8004203687:	48 89 e5             	mov    %rsp,%rbp
  800420368a:	48 83 ec 30          	sub    $0x30,%rsp
  800420368e:	48 89 7d e8          	mov    %rdi,-0x18(%rbp)
  8004203692:	48 89 75 e0          	mov    %rsi,-0x20(%rbp)
  8004203696:	48 89 55 d8          	mov    %rdx,-0x28(%rbp)
	// Fill this function in
	struct PageInfo *page;
        pte_t *temp;
        temp=pml4e_walk(pml4e,va,0);
  800420369a:	48 8b 4d e0          	mov    -0x20(%rbp),%rcx
  800420369e:	48 8b 45 e8          	mov    -0x18(%rbp),%rax
  80042036a2:	ba 00 00 00 00       	mov    $0x0,%edx
  80042036a7:	48 89 ce             	mov    %rcx,%rsi
  80042036aa:	48 89 c7             	mov    %rax,%rdi
  80042036ad:	48 b8 4f 2e 20 04 80 	movabs $0x8004202e4f,%rax
  80042036b4:	00 00 00 
  80042036b7:	ff d0                	callq  *%rax
  80042036b9:	48 89 45 f8          	mov    %rax,-0x8(%rbp)
	if(temp==NULL)
  80042036bd:	48 83 7d f8 00       	cmpq   $0x0,-0x8(%rbp)
  80042036c2:	75 07                	jne    80042036cb <page_lookup+0x45>
                return NULL;
  80042036c4:	b8 00 00 00 00       	mov    $0x0,%eax
  80042036c9:	eb 36                	jmp    8004203701 <page_lookup+0x7b>

        physaddr_t temp1 = *temp & ~0xFFF;
  80042036cb:	48 8b 45 f8          	mov    -0x8(%rbp),%rax
  80042036cf:	48 8b 00             	mov    (%rax),%rax
  80042036d2:	48 25 00 f0 ff ff    	and    $0xfffffffffffff000,%rax
  80042036d8:	48 89 45 f0          	mov    %rax,-0x10(%rbp)
        //addr= addr&(0xffffffffff000);

        if(pte_store!=NULL)
  80042036dc:	48 83 7d d8 00       	cmpq   $0x0,-0x28(%rbp)
  80042036e1:	74 0b                	je     80042036ee <page_lookup+0x68>
        {
                *pte_store=temp;
  80042036e3:	48 8b 45 d8          	mov    -0x28(%rbp),%rax
  80042036e7:	48 8b 55 f8          	mov    -0x8(%rbp),%rdx
  80042036eb:	48 89 10             	mov    %rdx,(%rax)

        }
        //*pte_store=temp;
        // Fill this function in
        return pa2page(temp1);
  80042036ee:	48 8b 45 f0          	mov    -0x10(%rbp),%rax
  80042036f2:	48 89 c7             	mov    %rax,%rdi
  80042036f5:	48 b8 bd 19 20 04 80 	movabs $0x80042019bd,%rax
  80042036fc:	00 00 00 
  80042036ff:	ff d0                	callq  *%rax

}
  8004203701:	c9                   	leaveq 
  8004203702:	c3                   	retq   

0000008004203703 <page_remove>:
// Hint: The TA solution is implemented using page_lookup,
// 	tlb_invalidate, and page_decref.
//
void
page_remove(pml4e_t *pml4e, void *va)
{
  8004203703:	55                   	push   %rbp
  8004203704:	48 89 e5             	mov    %rsp,%rbp
  8004203707:	48 83 ec 20          	sub    $0x20,%rsp
  800420370b:	48 89 7d e8          	mov    %rdi,-0x18(%rbp)
  800420370f:	48 89 75 e0          	mov    %rsi,-0x20(%rbp)
	// Fill this function in
	struct PageInfo *page;
        pte_t *ptestore,*lookup;
        page=page_lookup(pml4e,va,&ptestore);
  8004203713:	48 8d 55 f0          	lea    -0x10(%rbp),%rdx
  8004203717:	48 8b 4d e0          	mov    -0x20(%rbp),%rcx
  800420371b:	48 8b 45 e8          	mov    -0x18(%rbp),%rax
  800420371f:	48 89 ce             	mov    %rcx,%rsi
  8004203722:	48 89 c7             	mov    %rax,%rdi
  8004203725:	48 b8 86 36 20 04 80 	movabs $0x8004203686,%rax
  800420372c:	00 00 00 
  800420372f:	ff d0                	callq  *%rax
